; ModuleID = 'dynamic.c513a65b6d74395f-cgu.0'
source_filename = "dynamic.c513a65b6d74395f-cgu.0"
target datalayout = "e-m:e-p270:32:32-p271:32:32-p272:64:64-i64:64-i128:128-f80:128-n8:16:32:64-S128"
target triple = "x86_64-unknown-linux-gnu"

@vtable.0 = private unnamed_addr constant <{ [24 x i8], ptr, ptr, ptr }> <{ [24 x i8] c"\00\00\00\00\00\00\00\00\08\00\00\00\00\00\00\00\08\00\00\00\00\00\00\00", ptr @"_ZN4core3ops8function6FnOnce40call_once$u7b$$u7b$vtable.shim$u7d$$u7d$17h4116075843867654E", ptr @"_ZN3std2rt10lang_start28_$u7b$$u7b$closure$u7d$$u7d$17hd6a3549c3f7fc45eE", ptr @"_ZN3std2rt10lang_start28_$u7b$$u7b$closure$u7d$$u7d$17hd6a3549c3f7fc45eE" }>, align 8
@vtable.1 = private unnamed_addr constant <{ ptr, [16 x i8], ptr }> <{ ptr @"_ZN4core3ptr42drop_in_place$LT$std..io..error..Error$GT$17haabbf6999498c076E", [16 x i8] c"\08\00\00\00\00\00\00\00\08\00\00\00\00\00\00\00", ptr @"_ZN58_$LT$std..io..error..Error$u20$as$u20$core..fmt..Debug$GT$3fmt17h62ceb23194058131E" }>, align 8
@alloc_00ae4b301f7fab8ac9617c03fcbd7274 = private unnamed_addr constant [43 x i8] c"called `Result::unwrap()` on an `Err` value", align 1
@vtable.2 = private unnamed_addr constant <{ [24 x i8], ptr }> <{ [24 x i8] c"\00\00\00\00\00\00\00\00\01\00\00\00\00\00\00\00\01\00\00\00\00\00\00\00", ptr @"_ZN68_$LT$core..num..error..ParseIntError$u20$as$u20$core..fmt..Debug$GT$3fmt17ha3a87f33f6dad506E" }>, align 8
@_ZN4core7unicode12unicode_data11white_space14WHITESPACE_MAP17h4cf41e25fd3a5318E = external local_unnamed_addr global [256 x i8]
@alloc_59ba7b9f7211443cd55a366616eef46a = private unnamed_addr constant [5 x i8] c"Empty", align 1
@alloc_00315c78e51d29fe6b3102a4c1ecf6ef = private unnamed_addr constant [12 x i8] c"InvalidDigit", align 1
@alloc_bd3a3f3879e0d5f64554753e977f58d4 = private unnamed_addr constant [11 x i8] c"PosOverflow", align 1
@alloc_0964bb2a4870637395c77a018495bd5c = private unnamed_addr constant [11 x i8] c"NegOverflow", align 1
@alloc_6566120a3a17f930e960a0863fcbd591 = private unnamed_addr constant [4 x i8] c"Zero", align 1
@vtable.3 = private unnamed_addr constant <{ [24 x i8], ptr }> <{ [24 x i8] c"\00\00\00\00\00\00\00\00\08\00\00\00\00\00\00\00\08\00\00\00\00\00\00\00", ptr @"_ZN42_$LT$$RF$T$u20$as$u20$core..fmt..Debug$GT$3fmt17hbd2f0ac1e27a2606E" }>, align 8
@alloc_f62df14955f7d78bca139b0a7668683d = private unnamed_addr constant [13 x i8] c"ParseIntError", align 1
@alloc_a5d866b1768ad3f826bccdb004a1a8ae = private unnamed_addr constant [4 x i8] c"kind", align 1
@alloc_2611e2d9ea94ccd79107425d57da7ebe = private unnamed_addr constant [21 x i8] c"(RUST) Enter index: \0A", align 1
@alloc_02aa2a2b13bfc37be163f6bdfdaaaf45 = private unnamed_addr constant <{ ptr, [8 x i8] }> <{ ptr @alloc_2611e2d9ea94ccd79107425d57da7ebe, [8 x i8] c"\15\00\00\00\00\00\00\00" }>, align 8
@alloc_9c209c17a7be20e0e526d047cf6ae3bf = private unnamed_addr constant [11 x i8] c"dynamic.rs\00", align 1
@alloc_4f7c59be0e9e6c2a5aabde5b052d1f9c = private unnamed_addr constant <{ ptr, [16 x i8] }> <{ ptr @alloc_9c209c17a7be20e0e526d047cf6ae3bf, [16 x i8] c"\0A\00\00\00\00\00\00\00\08\00\00\00'\00\00\00" }>, align 8
@alloc_69b581a9cd327bc90a5fd6ab0f582b95 = private unnamed_addr constant <{ ptr, [16 x i8] }> <{ ptr @alloc_9c209c17a7be20e0e526d047cf6ae3bf, [16 x i8] c"\0A\00\00\00\00\00\00\00\09\00\00\00+\00\00\00" }>, align 8
@alloc_3d0e4a3a73847fef13a56cc677ef6ac0 = private unnamed_addr constant <{ ptr, [16 x i8] }> <{ ptr @alloc_9c209c17a7be20e0e526d047cf6ae3bf, [16 x i8] c"\0A\00\00\00\00\00\00\00\0B\00\00\00#\00\00\00" }>, align 8
@alloc_bf02c2bdf03dc767332a97e55cf802d2 = private unnamed_addr constant [4 x i8] c"att[", align 1
@alloc_428053e6434889c8e3f16313e3d2a9ba = private unnamed_addr constant [4 x i8] c"] = ", align 1
@alloc_49a1e817e911805af64bbc7efb390101 = private unnamed_addr constant [1 x i8] c"\0A", align 1
@alloc_9dbc8530e7c00a3264d046557416dcee = private unnamed_addr constant <{ ptr, [8 x i8], ptr, [8 x i8], ptr, [8 x i8] }> <{ ptr @alloc_bf02c2bdf03dc767332a97e55cf802d2, [8 x i8] c"\04\00\00\00\00\00\00\00", ptr @alloc_428053e6434889c8e3f16313e3d2a9ba, [8 x i8] c"\04\00\00\00\00\00\00\00", ptr @alloc_49a1e817e911805af64bbc7efb390101, [8 x i8] c"\01\00\00\00\00\00\00\00" }>, align 8
@"switch.table._ZN42_$LT$$RF$T$u20$as$u20$core..fmt..Debug$GT$3fmt17hbd2f0ac1e27a2606E" = private unnamed_addr constant [5 x i64] [i64 5, i64 12, i64 11, i64 11, i64 4], align 8
@"switch.table._ZN42_$LT$$RF$T$u20$as$u20$core..fmt..Debug$GT$3fmt17hbd2f0ac1e27a2606E.20.rel" = private unnamed_addr constant [5 x i32] [i32 trunc (i64 sub (i64 ptrtoint (ptr @alloc_59ba7b9f7211443cd55a366616eef46a to i64), i64 ptrtoint (ptr @"switch.table._ZN42_$LT$$RF$T$u20$as$u20$core..fmt..Debug$GT$3fmt17hbd2f0ac1e27a2606E.20.rel" to i64)) to i32), i32 trunc (i64 sub (i64 ptrtoint (ptr @alloc_00315c78e51d29fe6b3102a4c1ecf6ef to i64), i64 ptrtoint (ptr @"switch.table._ZN42_$LT$$RF$T$u20$as$u20$core..fmt..Debug$GT$3fmt17hbd2f0ac1e27a2606E.20.rel" to i64)) to i32), i32 trunc (i64 sub (i64 ptrtoint (ptr @alloc_bd3a3f3879e0d5f64554753e977f58d4 to i64), i64 ptrtoint (ptr @"switch.table._ZN42_$LT$$RF$T$u20$as$u20$core..fmt..Debug$GT$3fmt17hbd2f0ac1e27a2606E.20.rel" to i64)) to i32), i32 trunc (i64 sub (i64 ptrtoint (ptr @alloc_0964bb2a4870637395c77a018495bd5c to i64), i64 ptrtoint (ptr @"switch.table._ZN42_$LT$$RF$T$u20$as$u20$core..fmt..Debug$GT$3fmt17hbd2f0ac1e27a2606E.20.rel" to i64)) to i32), i32 trunc (i64 sub (i64 ptrtoint (ptr @alloc_6566120a3a17f930e960a0863fcbd591 to i64), i64 ptrtoint (ptr @"switch.table._ZN42_$LT$$RF$T$u20$as$u20$core..fmt..Debug$GT$3fmt17hbd2f0ac1e27a2606E.20.rel" to i64)) to i32)], align 4

; std::rt::lang_start
; Function Attrs: nonlazybind uwtable
define hidden noundef i64 @_ZN3std2rt10lang_start17h4f8a38ba352057ddE(ptr noundef nonnull %main, i64 noundef %argc, ptr noundef %argv, i8 noundef %sigpipe) unnamed_addr #0 {
start:
  %_7 = alloca [8 x i8], align 8
  call void @llvm.lifetime.start.p0(i64 8, ptr nonnull %_7)
  store ptr %main, ptr %_7, align 8
; call std::rt::lang_start_internal
  %_0 = call noundef i64 @_ZN3std2rt19lang_start_internal17h6ba36b077a531782E(ptr noundef nonnull align 1 %_7, ptr noalias noundef readonly align 8 captures(address, read_provenance) dereferenceable(48) @vtable.0, i64 noundef %argc, ptr noundef %argv, i8 noundef %sigpipe)
  call void @llvm.lifetime.end.p0(i64 8, ptr nonnull %_7)
  ret i64 %_0
}

; std::rt::lang_start::{{closure}}
; Function Attrs: inlinehint nonlazybind uwtable
define internal noundef i32 @"_ZN3std2rt10lang_start28_$u7b$$u7b$closure$u7d$$u7d$17hd6a3549c3f7fc45eE"(ptr noalias noundef readonly align 8 captures(none) dereferenceable(8) %_1) unnamed_addr #1 {
start:
  %_4 = load ptr, ptr %_1, align 8, !nonnull !4, !noundef !4
; call std::sys::backtrace::__rust_begin_short_backtrace
  tail call fastcc void @_ZN3std3sys9backtrace28__rust_begin_short_backtrace17hfd73fc25872e5c78E(ptr noundef nonnull %_4)
  ret i32 0
}

; std::sys::backtrace::__rust_begin_short_backtrace
; Function Attrs: noinline nonlazybind uwtable
define internal fastcc void @_ZN3std3sys9backtrace28__rust_begin_short_backtrace17hfd73fc25872e5c78E(ptr noundef nonnull readonly captures(none) %f) unnamed_addr #2 {
start:
  tail call void %f()
  tail call void asm sideeffect "", "~{memory}"() #14, !srcloc !5
  ret void
}

; <&T as core::fmt::Debug>::fmt
; Function Attrs: nonlazybind uwtable
define internal noundef zeroext i1 @"_ZN42_$LT$$RF$T$u20$as$u20$core..fmt..Debug$GT$3fmt17hbd2f0ac1e27a2606E"(ptr noalias noundef readonly align 8 captures(none) dereferenceable(8) %self, ptr noalias noundef align 8 dereferenceable(24) %f) unnamed_addr #0 {
start:
  %_3 = load ptr, ptr %self, align 8, !nonnull !4, !align !6, !noundef !4
  %_3.val = load i8, ptr %_3, align 1, !range !7, !noundef !4
  %0 = zext nneg i8 %_3.val to i64
  %switch.gep = getelementptr inbounds nuw [5 x i64], ptr @"switch.table._ZN42_$LT$$RF$T$u20$as$u20$core..fmt..Debug$GT$3fmt17hbd2f0ac1e27a2606E", i64 0, i64 %0
  %switch.load = load i64, ptr %switch.gep, align 8
  %1 = zext nneg i8 %_3.val to i64
  %reltable.shift = shl i64 %1, 2
  %reltable.intrinsic = call ptr @llvm.load.relative.i64(ptr @"switch.table._ZN42_$LT$$RF$T$u20$as$u20$core..fmt..Debug$GT$3fmt17hbd2f0ac1e27a2606E.20.rel", i64 %reltable.shift)
; call core::fmt::Formatter::write_str
  %_0.i = tail call noundef zeroext i1 @_ZN4core3fmt9Formatter9write_str17haacafd99ed76659fE(ptr noalias noundef nonnull align 8 dereferenceable(24) %f, ptr noalias noundef nonnull readonly align 1 captures(address, read_provenance) %reltable.intrinsic, i64 noundef %switch.load)
  ret i1 %_0.i
}

; core::ops::function::FnOnce::call_once{{vtable.shim}}
; Function Attrs: inlinehint nonlazybind uwtable
define internal noundef i32 @"_ZN4core3ops8function6FnOnce40call_once$u7b$$u7b$vtable.shim$u7d$$u7d$17h4116075843867654E"(ptr noundef readonly captures(none) %_1) unnamed_addr #1 personality ptr @rust_eh_personality {
start:
  %0 = load ptr, ptr %_1, align 8, !nonnull !4, !noundef !4
; call std::sys::backtrace::__rust_begin_short_backtrace
  tail call fastcc void @_ZN3std3sys9backtrace28__rust_begin_short_backtrace17hfd73fc25872e5c78E(ptr noundef nonnull readonly %0), !noalias !8
  ret i32 0
}

; core::ptr::drop_in_place<std::io::error::Error>
; Function Attrs: nonlazybind uwtable
define internal void @"_ZN4core3ptr42drop_in_place$LT$std..io..error..Error$GT$17haabbf6999498c076E"(ptr noalias noundef readonly align 8 captures(none) dereferenceable(8) %_1) unnamed_addr #0 personality ptr @rust_eh_personality {
start:
  %_1.val = load ptr, ptr %_1, align 8, !nonnull !4, !noundef !4
  %0 = ptrtoint ptr %_1.val to i64
  %_5.i.i.i = and i64 %0, 3
  %switch.i.i = icmp eq i64 %_5.i.i.i, 1
  br i1 %switch.i.i, label %bb2.i2.i.i, label %"_ZN4core3ptr57drop_in_place$LT$std..io..error..repr_bitpacked..Repr$GT$17hb2de838b41cc3ce2E.exit", !prof !11

bb2.i2.i.i:                                       ; preds = %start
  %1 = getelementptr i8, ptr %_1.val, i64 -1
  %2 = icmp ne ptr %1, null
  tail call void @llvm.assume(i1 %2)
  %_6.val.i.i.i.i = load ptr, ptr %1, align 8
  %3 = getelementptr i8, ptr %_1.val, i64 7
  %_6.val1.i.i.i.i = load ptr, ptr %3, align 8, !nonnull !4, !align !12, !noundef !4
  %4 = load ptr, ptr %_6.val1.i.i.i.i, align 8, !invariant.load !4
  %.not.i.i.i.i.i.i = icmp eq ptr %4, null
  br i1 %.not.i.i.i.i.i.i, label %bb3.i.i.i.i.i.i, label %is_not_null.i.i.i.i.i.i

is_not_null.i.i.i.i.i.i:                          ; preds = %bb2.i2.i.i
  %5 = icmp ne ptr %_6.val.i.i.i.i, null
  tail call void @llvm.assume(i1 %5)
  invoke void %4(ptr noundef nonnull %_6.val.i.i.i.i)
          to label %bb3.i.i.i.i.i.i unwind label %cleanup.i.i.i.i.i.i

bb3.i.i.i.i.i.i:                                  ; preds = %is_not_null.i.i.i.i.i.i, %bb2.i2.i.i
  %6 = icmp ne ptr %_6.val.i.i.i.i, null
  tail call void @llvm.assume(i1 %6)
  %7 = getelementptr inbounds nuw i8, ptr %_6.val1.i.i.i.i, i64 8
  %8 = load i64, ptr %7, align 8, !range !13, !invariant.load !4
  %9 = getelementptr inbounds nuw i8, ptr %_6.val1.i.i.i.i, i64 16
  %10 = load i64, ptr %9, align 8, !range !14, !invariant.load !4
  %11 = add i64 %10, -1
  %12 = icmp sgt i64 %11, -1
  tail call void @llvm.assume(i1 %12)
  %13 = icmp eq i64 %8, 0
  br i1 %13, label %"_ZN4core3ptr68drop_in_place$LT$alloc..boxed..Box$LT$std..io..error..Custom$GT$$GT$17hfc1f1ac779e85eeeE.exit.i.i.i", label %"_ZN63_$LT$alloc..alloc..Global$u20$as$u20$core..alloc..Allocator$GT$10deallocate17h1e0b43146c957e5eE.exit.i.i.i.i.i.i.i"

"_ZN63_$LT$alloc..alloc..Global$u20$as$u20$core..alloc..Allocator$GT$10deallocate17h1e0b43146c957e5eE.exit.i.i.i.i.i.i.i": ; preds = %bb3.i.i.i.i.i.i
; call __rustc::__rust_dealloc
  tail call void @_RNvCskdKJRKLKjqM_7___rustc14___rust_dealloc(ptr noundef nonnull %_6.val.i.i.i.i, i64 noundef %8, i64 noundef range(i64 1, -9223372036854775807) %10) #14
  br label %"_ZN4core3ptr68drop_in_place$LT$alloc..boxed..Box$LT$std..io..error..Custom$GT$$GT$17hfc1f1ac779e85eeeE.exit.i.i.i"

cleanup.i.i.i.i.i.i:                              ; preds = %is_not_null.i.i.i.i.i.i
  %14 = landingpad { ptr, i32 }
          cleanup
  %15 = getelementptr inbounds nuw i8, ptr %_6.val1.i.i.i.i, i64 8
  %16 = load i64, ptr %15, align 8, !range !13, !invariant.load !4
  %17 = getelementptr inbounds nuw i8, ptr %_6.val1.i.i.i.i, i64 16
  %18 = load i64, ptr %17, align 8, !range !14, !invariant.load !4
  %19 = add i64 %18, -1
  %20 = icmp sgt i64 %19, -1
  tail call void @llvm.assume(i1 %20)
  %21 = icmp eq i64 %16, 0
  br i1 %21, label %bb1.i.i.i.i, label %"_ZN63_$LT$alloc..alloc..Global$u20$as$u20$core..alloc..Allocator$GT$10deallocate17h1e0b43146c957e5eE.exit.i4.i.i.i.i.i.i"

"_ZN63_$LT$alloc..alloc..Global$u20$as$u20$core..alloc..Allocator$GT$10deallocate17h1e0b43146c957e5eE.exit.i4.i.i.i.i.i.i": ; preds = %cleanup.i.i.i.i.i.i
; call __rustc::__rust_dealloc
  tail call void @_RNvCskdKJRKLKjqM_7___rustc14___rust_dealloc(ptr noundef nonnull %_6.val.i.i.i.i, i64 noundef %16, i64 noundef range(i64 1, -9223372036854775807) %18) #14
  br label %bb1.i.i.i.i

bb1.i.i.i.i:                                      ; preds = %"_ZN63_$LT$alloc..alloc..Global$u20$as$u20$core..alloc..Allocator$GT$10deallocate17h1e0b43146c957e5eE.exit.i4.i.i.i.i.i.i", %cleanup.i.i.i.i.i.i
; call __rustc::__rust_dealloc
  tail call void @_RNvCskdKJRKLKjqM_7___rustc14___rust_dealloc(ptr noundef nonnull %1, i64 noundef 24, i64 noundef 8) #14
  resume { ptr, i32 } %14

"_ZN4core3ptr68drop_in_place$LT$alloc..boxed..Box$LT$std..io..error..Custom$GT$$GT$17hfc1f1ac779e85eeeE.exit.i.i.i": ; preds = %"_ZN63_$LT$alloc..alloc..Global$u20$as$u20$core..alloc..Allocator$GT$10deallocate17h1e0b43146c957e5eE.exit.i.i.i.i.i.i.i", %bb3.i.i.i.i.i.i
; call __rustc::__rust_dealloc
  tail call void @_RNvCskdKJRKLKjqM_7___rustc14___rust_dealloc(ptr noundef nonnull %1, i64 noundef 24, i64 noundef 8) #14
  br label %"_ZN4core3ptr57drop_in_place$LT$std..io..error..repr_bitpacked..Repr$GT$17hb2de838b41cc3ce2E.exit"

"_ZN4core3ptr57drop_in_place$LT$std..io..error..repr_bitpacked..Repr$GT$17hb2de838b41cc3ce2E.exit": ; preds = %start, %"_ZN4core3ptr68drop_in_place$LT$alloc..boxed..Box$LT$std..io..error..Custom$GT$$GT$17hfc1f1ac779e85eeeE.exit.i.i.i"
  ret void
}

; <core::num::error::ParseIntError as core::fmt::Debug>::fmt
; Function Attrs: inlinehint nonlazybind uwtable
define internal noundef zeroext i1 @"_ZN68_$LT$core..num..error..ParseIntError$u20$as$u20$core..fmt..Debug$GT$3fmt17ha3a87f33f6dad506E"(ptr noalias noundef readonly align 1 captures(address, read_provenance) dereferenceable(1) %self, ptr noalias noundef align 8 dereferenceable(24) %f) unnamed_addr #1 {
start:
  %_5 = alloca [8 x i8], align 8
  call void @llvm.lifetime.start.p0(i64 8, ptr nonnull %_5)
  store ptr %self, ptr %_5, align 8
; call core::fmt::Formatter::debug_struct_field1_finish
  %_0 = call noundef zeroext i1 @_ZN4core3fmt9Formatter26debug_struct_field1_finish17h8a12e96a3fe33b10E(ptr noalias noundef nonnull align 8 dereferenceable(24) %f, ptr noalias noundef nonnull readonly align 1 captures(address, read_provenance) @alloc_f62df14955f7d78bca139b0a7668683d, i64 noundef 13, ptr noalias noundef nonnull readonly align 1 captures(address, read_provenance) @alloc_a5d866b1768ad3f826bccdb004a1a8ae, i64 noundef 4, ptr noundef nonnull align 1 %_5, ptr noalias noundef readonly align 8 captures(address, read_provenance) dereferenceable(32) @vtable.3)
  call void @llvm.lifetime.end.p0(i64 8, ptr nonnull %_5)
  ret i1 %_0
}

; dynamic::main
; Function Attrs: nonlazybind uwtable
define hidden void @_ZN7dynamic4main17h6bc5bc0f8707dddfE() unnamed_addr #0 personality ptr @rust_eh_personality {
start:
  %e.i2 = alloca [1 x i8], align 1
  %e.i = alloca [8 x i8], align 8
  %args = alloca [32 x i8], align 8
  %_15 = alloca [48 x i8], align 8
  %idx = alloca [8 x i8], align 8
  %_8 = alloca [8 x i8], align 8
  %input = alloca [24 x i8], align 8
  %_3 = alloca [48 x i8], align 8
  %arr = alloca [20 x i8], align 16
  call void @llvm.lifetime.start.p0(i64 20, ptr nonnull %arr)
  store <4 x i32> <i32 10, i32 20, i32 30, i32 40>, ptr %arr, align 16
  %0 = getelementptr inbounds nuw i8, ptr %arr, i64 16
  store i32 50, ptr %0, align 16
  call void @llvm.lifetime.start.p0(i64 48, ptr nonnull %_3)
  store ptr @alloc_02aa2a2b13bfc37be163f6bdfdaaaf45, ptr %_3, align 8
  %1 = getelementptr inbounds nuw i8, ptr %_3, i64 8
  store i64 1, ptr %1, align 8
  %2 = getelementptr inbounds nuw i8, ptr %_3, i64 32
  store ptr null, ptr %2, align 8
  %3 = getelementptr inbounds nuw i8, ptr %_3, i64 16
  store ptr inttoptr (i64 8 to ptr), ptr %3, align 8
  %4 = getelementptr inbounds nuw i8, ptr %_3, i64 24
  store i64 0, ptr %4, align 8
; call std::io::stdio::_print
  call void @_ZN3std2io5stdio6_print17h361a6d98ea723aceE(ptr noalias noundef nonnull align 8 captures(address) dereferenceable(48) %_3)
  call void @llvm.lifetime.end.p0(i64 48, ptr nonnull %_3)
  call void @llvm.lifetime.start.p0(i64 24, ptr nonnull %input)
  store i64 0, ptr %input, align 8
  %_25.sroa.4.0.input.sroa_idx = getelementptr inbounds nuw i8, ptr %input, i64 8
  store ptr inttoptr (i64 1 to ptr), ptr %_25.sroa.4.0.input.sroa_idx, align 8
  %_25.sroa.5.0.input.sroa_idx = getelementptr inbounds nuw i8, ptr %input, i64 16
  store i64 0, ptr %_25.sroa.5.0.input.sroa_idx, align 8
  call void @llvm.lifetime.start.p0(i64 8, ptr nonnull %_8)
; invoke std::io::stdio::stdin
  %5 = invoke noundef nonnull align 8 ptr @_ZN3std2io5stdio5stdin17h098929a647404888E()
          to label %bb2 unwind label %cleanup

cleanup:                                          ; preds = %bb2.i3, %bb6, %panic, %bb2, %start
  %6 = landingpad { ptr, i32 }
          cleanup
  br label %cleanup.body

cleanup.body:                                     ; preds = %cleanup.i, %cleanup
  %eh.lpad-body = phi { ptr, i32 } [ %6, %cleanup ], [ %10, %cleanup.i ]
  %input.val = load i64, ptr %input, align 8
  %7 = icmp eq i64 %input.val, 0
  br i1 %7, label %bb10, label %"_ZN63_$LT$alloc..alloc..Global$u20$as$u20$core..alloc..Allocator$GT$10deallocate17h1e0b43146c957e5eE.exit.i.i.i4.i.i"

"_ZN63_$LT$alloc..alloc..Global$u20$as$u20$core..alloc..Allocator$GT$10deallocate17h1e0b43146c957e5eE.exit.i.i.i4.i.i": ; preds = %cleanup.body
  %input.val4 = load ptr, ptr %_25.sroa.4.0.input.sroa_idx, align 8, !nonnull !4, !noundef !4
; call __rustc::__rust_dealloc
  call void @_RNvCskdKJRKLKjqM_7___rustc14___rust_dealloc(ptr noundef nonnull %input.val4, i64 noundef %input.val, i64 noundef range(i64 1, -9223372036854775807) 1) #14
  br label %bb10

bb2:                                              ; preds = %start
  store ptr %5, ptr %_8, align 8
; invoke std::io::stdio::Stdin::read_line
  %8 = invoke { i64, ptr } @_ZN3std2io5stdio5Stdin9read_line17h904ff10c15f35ae9E(ptr noalias noundef nonnull readonly align 8 captures(address, read_provenance) dereferenceable(8) %_8, ptr noalias noundef nonnull align 8 dereferenceable(24) %input)
          to label %bb3 unwind label %cleanup

bb3:                                              ; preds = %bb2
  %_6.0 = extractvalue { i64, ptr } %8, 0
  %9 = trunc nuw i64 %_6.0 to i1
  br i1 %9, label %bb2.i, label %bb4, !prof !15

bb2.i:                                            ; preds = %bb3
  %_6.1 = extractvalue { i64, ptr } %8, 1
  call void @llvm.lifetime.start.p0(i64 8, ptr nonnull %e.i)
  store ptr %_6.1, ptr %e.i, align 8
; invoke core::result::unwrap_failed
  invoke void @_ZN4core6result13unwrap_failed17h0501379eaec3e720E(ptr noalias noundef nonnull readonly align 1 captures(address, read_provenance) @alloc_00ae4b301f7fab8ac9617c03fcbd7274, i64 noundef 43, ptr noundef nonnull align 1 %e.i, ptr noalias noundef readonly align 8 captures(address, read_provenance) dereferenceable(32) @vtable.1, ptr noalias noundef readonly align 8 captures(address, read_provenance) dereferenceable(24) @alloc_4f7c59be0e9e6c2a5aabde5b052d1f9c) #15
          to label %unreachable.i unwind label %cleanup.i

cleanup.i:                                        ; preds = %bb2.i
  %10 = landingpad { ptr, i32 }
          cleanup
; invoke core::ptr::drop_in_place<std::io::error::Error>
  invoke void @"_ZN4core3ptr42drop_in_place$LT$std..io..error..Error$GT$17haabbf6999498c076E"(ptr noalias noundef nonnull align 8 dereferenceable(8) %e.i) #16
          to label %cleanup.body unwind label %terminate.i

unreachable.i:                                    ; preds = %bb2.i
  unreachable

terminate.i:                                      ; preds = %cleanup.i
  %11 = landingpad { ptr, i32 }
          filter [0 x ptr] zeroinitializer
; call core::panicking::panic_in_cleanup
  call void @_ZN4core9panicking16panic_in_cleanup17h5eff40bcc4481d72E() #17
  unreachable

bb4:                                              ; preds = %bb3
  call void @llvm.lifetime.end.p0(i64 8, ptr nonnull %_8)
  %_29 = load ptr, ptr %_25.sroa.4.0.input.sroa_idx, align 8, !nonnull !4, !noundef !4
  %_28 = load i64, ptr %_25.sroa.5.0.input.sroa_idx, align 8, !noundef !4
  call void @llvm.experimental.noalias.scope.decl(metadata !16)
  %_7.i.i.i.i = getelementptr inbounds nuw i8, ptr %_29, i64 %_28
  %_6.i.i.i.i11.i.i.i = icmp samesign eq i64 %_28, 0
  br i1 %_6.i.i.i.i11.i.i.i, label %bb5.i7, label %bb14.i.i.i.i.i.i

bb14.i.i.i.i.i.i:                                 ; preds = %bb4, %bb5.i.i.i
  %12 = phi i64 [ %19, %bb5.i.i.i ], [ 0, %bb4 ]
  %_18.i23.i.i.i1012.i.i.i = phi ptr [ %_25.i.i.i.i, %bb5.i.i.i ], [ %_29, %bb4 ]
  %13 = ptrtoint ptr %_18.i23.i.i.i1012.i.i.i to i64
  %_18.i.i.i.i.i.i.i = getelementptr inbounds nuw i8, ptr %_18.i23.i.i.i1012.i.i.i, i64 1
  %x.i.i.i.i.i.i = load i8, ptr %_18.i23.i.i.i1012.i.i.i, align 1, !alias.scope !16, !noalias !19, !noundef !4
  %_6.i.i.i.i.i.i = icmp sgt i8 %x.i.i.i.i.i.i, -1
  br i1 %_6.i.i.i.i.i.i, label %bb3.i.i.i.i.i.i, label %bb4.i.i.i.i.i.i

bb4.i.i.i.i.i.i:                                  ; preds = %bb14.i.i.i.i.i.i
  %_31.i.i.i.i.i.i = and i8 %x.i.i.i.i.i.i, 31
  %init.i.i.i.i.i.i = zext nneg i8 %_31.i.i.i.i.i.i to i32
  %_6.i9.i.i.i.i.i.i = icmp ne ptr %_18.i.i.i.i.i.i.i, %_7.i.i.i.i
  call void @llvm.assume(i1 %_6.i9.i.i.i.i.i.i)
  %_18.i11.i.i.i.i.i.i = getelementptr inbounds nuw i8, ptr %_18.i23.i.i.i1012.i.i.i, i64 2
  %y.i.i.i.i.i.i = load i8, ptr %_18.i.i.i.i.i.i.i, align 1, !alias.scope !16, !noalias !19, !noundef !4
  %_35.i.i.i.i.i.i = shl nuw nsw i32 %init.i.i.i.i.i.i, 6
  %_37.i.i.i.i.i.i = and i8 %y.i.i.i.i.i.i, 63
  %_36.i.i.i.i.i.i = zext nneg i8 %_37.i.i.i.i.i.i to i32
  %14 = or disjoint i32 %_35.i.i.i.i.i.i, %_36.i.i.i.i.i.i
  %_13.i.i.i.i.i.i = icmp samesign ugt i8 %x.i.i.i.i.i.i, -33
  br i1 %_13.i.i.i.i.i.i, label %bb6.i.i.i.i.i.i, label %bb2.i.i.i.i

bb3.i.i.i.i.i.i:                                  ; preds = %bb14.i.i.i.i.i.i
  %_7.i.i.i.i.i.i = zext nneg i8 %x.i.i.i.i.i.i to i32
  br label %bb2.i.i.i.i

bb6.i.i.i.i.i.i:                                  ; preds = %bb4.i.i.i.i.i.i
  %_6.i15.i.i.i.i.i.i = icmp ne ptr %_18.i11.i.i.i.i.i.i, %_7.i.i.i.i
  call void @llvm.assume(i1 %_6.i15.i.i.i.i.i.i)
  %_18.i17.i.i.i.i.i.i = getelementptr inbounds nuw i8, ptr %_18.i23.i.i.i1012.i.i.i, i64 3
  %z.i.i.i.i.i.i = load i8, ptr %_18.i11.i.i.i.i.i.i, align 1, !alias.scope !16, !noalias !19, !noundef !4
  %_41.i.i.i.i.i.i = shl nuw nsw i32 %_36.i.i.i.i.i.i, 6
  %_43.i.i.i.i.i.i = and i8 %z.i.i.i.i.i.i, 63
  %_42.i.i.i.i.i.i = zext nneg i8 %_43.i.i.i.i.i.i to i32
  %y_z.i.i.i.i.i.i = or disjoint i32 %_41.i.i.i.i.i.i, %_42.i.i.i.i.i.i
  %_20.i.i.i.i.i.i = shl nuw nsw i32 %init.i.i.i.i.i.i, 12
  %15 = or disjoint i32 %y_z.i.i.i.i.i.i, %_20.i.i.i.i.i.i
  %_21.i.i.i.i.i.i = icmp samesign ugt i8 %x.i.i.i.i.i.i, -17
  br i1 %_21.i.i.i.i.i.i, label %bb8.i.i.i.i.i.i, label %bb2.i.i.i.i

bb8.i.i.i.i.i.i:                                  ; preds = %bb6.i.i.i.i.i.i
  %_6.i21.i.i.i.i.i.i = icmp ne ptr %_18.i17.i.i.i.i.i.i, %_7.i.i.i.i
  call void @llvm.assume(i1 %_6.i21.i.i.i.i.i.i)
  %_18.i23.i.i.i.i.i.i = getelementptr inbounds nuw i8, ptr %_18.i23.i.i.i1012.i.i.i, i64 4
  %w.i.i.i.i.i.i = load i8, ptr %_18.i17.i.i.i.i.i.i, align 1, !alias.scope !16, !noalias !19, !noundef !4
  %_26.i.i.i.i.i.i = shl nuw nsw i32 %init.i.i.i.i.i.i, 18
  %_25.i.i.i.i.i.i = and i32 %_26.i.i.i.i.i.i, 1835008
  %_47.i.i.i.i.i.i = shl nuw nsw i32 %y_z.i.i.i.i.i.i, 6
  %_49.i.i.i.i.i.i = and i8 %w.i.i.i.i.i.i, 63
  %_48.i.i.i.i.i.i = zext nneg i8 %_49.i.i.i.i.i.i to i32
  %_27.i.i.i.i.i.i = or disjoint i32 %_47.i.i.i.i.i.i, %_48.i.i.i.i.i.i
  %16 = or disjoint i32 %_27.i.i.i.i.i.i, %_25.i.i.i.i.i.i
  br label %bb2.i.i.i.i

bb2.i.i.i.i:                                      ; preds = %bb8.i.i.i.i.i.i, %bb6.i.i.i.i.i.i, %bb3.i.i.i.i.i.i, %bb4.i.i.i.i.i.i
  %_25.i.i.i.i = phi ptr [ %_18.i11.i.i.i.i.i.i, %bb4.i.i.i.i.i.i ], [ %_18.i17.i.i.i.i.i.i, %bb6.i.i.i.i.i.i ], [ %_18.i23.i.i.i.i.i.i, %bb8.i.i.i.i.i.i ], [ %_18.i.i.i.i.i.i.i, %bb3.i.i.i.i.i.i ]
  %_0.sroa.4.0.i.ph.i.i.i.i.i = phi i32 [ %14, %bb4.i.i.i.i.i.i ], [ %15, %bb6.i.i.i.i.i.i ], [ %16, %bb8.i.i.i.i.i.i ], [ %_7.i.i.i.i.i.i, %bb3.i.i.i.i.i.i ]
  %17 = icmp samesign ult i32 %_0.sroa.4.0.i.ph.i.i.i.i.i, 1114112
  call void @llvm.assume(i1 %17)
  %18 = ptrtoint ptr %_25.i.i.i.i to i64
  %_10.i.i.i.i.i = sub i64 %18, %13
  %19 = add i64 %_10.i.i.i.i.i, %12
  switch i32 %_0.sroa.4.0.i.ph.i.i.i.i.i, label %bb1.i.i.i.i.i.i.i [
    i32 32, label %bb5.i.i.i
    i32 13, label %bb5.i.i.i
    i32 12, label %bb5.i.i.i
    i32 11, label %bb5.i.i.i
    i32 10, label %bb5.i.i.i
    i32 9, label %bb5.i.i.i
  ]

bb1.i.i.i.i.i.i.i:                                ; preds = %bb2.i.i.i.i
  %_4.i.i.i.i.i.i.i = icmp samesign ugt i32 %_0.sroa.4.0.i.ph.i.i.i.i.i, 127
  br i1 %_4.i.i.i.i.i.i.i, label %bb5.i.i.i.i.i.i.i, label %bb5.i7

bb5.i.i.i.i.i.i.i:                                ; preds = %bb1.i.i.i.i.i.i.i
  %_3.i.i.i.i.i.i.i.i = lshr i32 %_0.sroa.4.0.i.ph.i.i.i.i.i, 8
  switch i32 %_3.i.i.i.i.i.i.i.i, label %bb5.i7 [
    i32 0, label %bb6.i.i.i.i.i.i.i.i
    i32 22, label %bb4.i.i.i.i.i.i.i.i
    i32 32, label %bb7.i.i.i.i.i.i.i.i
    i32 48, label %bb2.i.i.i.i.i.i.i.i
  ]

bb4.i.i.i.i.i.i.i.i:                              ; preds = %bb5.i.i.i.i.i.i.i
  %20 = icmp eq i32 %_0.sroa.4.0.i.ph.i.i.i.i.i, 5760
  %21 = zext i1 %20 to i8
  br label %"_ZN53_$LT$F$u20$as$u20$core..str..pattern..MultiCharEq$GT$7matches17h39b8e1c983bb26a6E.exit.i.i.i.i"

bb2.i.i.i.i.i.i.i.i:                              ; preds = %bb5.i.i.i.i.i.i.i
  %22 = icmp eq i32 %_0.sroa.4.0.i.ph.i.i.i.i.i, 12288
  %23 = zext i1 %22 to i8
  br label %"_ZN53_$LT$F$u20$as$u20$core..str..pattern..MultiCharEq$GT$7matches17h39b8e1c983bb26a6E.exit.i.i.i.i"

bb6.i.i.i.i.i.i.i.i:                              ; preds = %bb5.i.i.i.i.i.i.i
  %24 = and i32 %_0.sroa.4.0.i.ph.i.i.i.i.i, 255
  %_8.i.i.i.i.i.i.i.i = zext nneg i32 %24 to i64
  %25 = getelementptr inbounds nuw i8, ptr @_ZN4core7unicode12unicode_data11white_space14WHITESPACE_MAP17h4cf41e25fd3a5318E, i64 %_8.i.i.i.i.i.i.i.i
  %_6.i.i.i.i.i.i.i.i = load i8, ptr %25, align 1, !noalias !33, !noundef !4
  br label %"_ZN53_$LT$F$u20$as$u20$core..str..pattern..MultiCharEq$GT$7matches17h39b8e1c983bb26a6E.exit.i.i.i.i"

bb7.i.i.i.i.i.i.i.i:                              ; preds = %bb5.i.i.i.i.i.i.i
  %26 = and i32 %_0.sroa.4.0.i.ph.i.i.i.i.i, 255
  %_14.i.i.i.i.i.i.i.i = zext nneg i32 %26 to i64
  %27 = getelementptr inbounds nuw i8, ptr @_ZN4core7unicode12unicode_data11white_space14WHITESPACE_MAP17h4cf41e25fd3a5318E, i64 %_14.i.i.i.i.i.i.i.i
  %_12.i.i.i.i.i.i.i.i = load i8, ptr %27, align 1, !noalias !33, !noundef !4
  %_11.i.i.i.i.i.i.i.i = lshr i8 %_12.i.i.i.i.i.i.i.i, 1
  br label %"_ZN53_$LT$F$u20$as$u20$core..str..pattern..MultiCharEq$GT$7matches17h39b8e1c983bb26a6E.exit.i.i.i.i"

"_ZN53_$LT$F$u20$as$u20$core..str..pattern..MultiCharEq$GT$7matches17h39b8e1c983bb26a6E.exit.i.i.i.i": ; preds = %bb7.i.i.i.i.i.i.i.i, %bb6.i.i.i.i.i.i.i.i, %bb2.i.i.i.i.i.i.i.i, %bb4.i.i.i.i.i.i.i.i
  %_0.sroa.0.0.i.i.i.i.i.i.i.i = phi i8 [ %_6.i.i.i.i.i.i.i.i, %bb6.i.i.i.i.i.i.i.i ], [ %21, %bb4.i.i.i.i.i.i.i.i ], [ %_11.i.i.i.i.i.i.i.i, %bb7.i.i.i.i.i.i.i.i ], [ %23, %bb2.i.i.i.i.i.i.i.i ]
  %28 = trunc i8 %_0.sroa.0.0.i.i.i.i.i.i.i.i to i1
  br i1 %28, label %bb5.i.i.i, label %bb5.i7

bb5.i.i.i:                                        ; preds = %"_ZN53_$LT$F$u20$as$u20$core..str..pattern..MultiCharEq$GT$7matches17h39b8e1c983bb26a6E.exit.i.i.i.i", %bb2.i.i.i.i, %bb2.i.i.i.i, %bb2.i.i.i.i, %bb2.i.i.i.i, %bb2.i.i.i.i, %bb2.i.i.i.i
  %_6.i.i.i.i.i.i.i = icmp eq ptr %_25.i.i.i.i, %_7.i.i.i.i
  br i1 %_6.i.i.i.i.i.i.i, label %bb11, label %bb14.i.i.i.i.i.i

bb5.i7:                                           ; preds = %"_ZN53_$LT$F$u20$as$u20$core..str..pattern..MultiCharEq$GT$7matches17h39b8e1c983bb26a6E.exit.i.i.i.i", %bb5.i.i.i.i.i.i.i, %bb1.i.i.i.i.i.i.i, %bb4
  %matcher.sroa.4.051.i = phi ptr [ %_29, %bb4 ], [ %_25.i.i.i.i, %bb1.i.i.i.i.i.i.i ], [ %_25.i.i.i.i, %bb5.i.i.i.i.i.i.i ], [ %_25.i.i.i.i, %"_ZN53_$LT$F$u20$as$u20$core..str..pattern..MultiCharEq$GT$7matches17h39b8e1c983bb26a6E.exit.i.i.i.i" ]
  %matcher.sroa.14.049.i = phi i64 [ 0, %bb4 ], [ %19, %bb1.i.i.i.i.i.i.i ], [ %19, %bb5.i.i.i.i.i.i.i ], [ %19, %"_ZN53_$LT$F$u20$as$u20$core..str..pattern..MultiCharEq$GT$7matches17h39b8e1c983bb26a6E.exit.i.i.i.i" ]
  %i.sroa.0.0.i = phi i64 [ 0, %bb4 ], [ %12, %bb1.i.i.i.i.i.i.i ], [ %12, %bb5.i.i.i.i.i.i.i ], [ %12, %"_ZN53_$LT$F$u20$as$u20$core..str..pattern..MultiCharEq$GT$7matches17h39b8e1c983bb26a6E.exit.i.i.i.i" ]
  %29 = icmp eq ptr %matcher.sroa.4.051.i, %_7.i.i.i.i
  br i1 %29, label %bb11, label %bb17.i.i.i.i.i.i

bb17.i.i.i.i.i.i:                                 ; preds = %bb5.i7, %bb5.i.i13.i
  %_25.i28.i.i.i1213.i.i.i = phi ptr [ %_24.i.i.i.i, %bb5.i.i13.i ], [ %_7.i.i.i.i, %bb5.i7 ]
  %_25.i.i.i.i.i.i.i = getelementptr inbounds i8, ptr %_25.i28.i.i.i1213.i.i.i, i64 -1
  %w.i.i.i.i.i6.i = load i8, ptr %_25.i.i.i.i.i.i.i, align 1, !alias.scope !16, !noalias !34, !noundef !4
  %_6.i.i.i.i.i7.i = icmp sgt i8 %w.i.i.i.i.i6.i, -1
  br i1 %_6.i.i.i.i.i7.i, label %bb3.i.i.i.i.i41.i, label %bb4.i.i.i.i.i8.i

bb4.i.i.i.i.i8.i:                                 ; preds = %bb17.i.i.i.i.i.i
  %30 = icmp ne ptr %matcher.sroa.4.051.i, %_25.i.i.i.i.i.i.i
  call void @llvm.assume(i1 %30)
  %_25.i16.i.i.i.i.i.i = getelementptr inbounds i8, ptr %_25.i28.i.i.i1213.i.i.i, i64 -2
  %z.i.i.i.i.i9.i = load i8, ptr %_25.i16.i.i.i.i.i.i, align 1, !alias.scope !16, !noalias !34, !noundef !4
  %_36.i.i.i.i.i10.i = and i8 %z.i.i.i.i.i9.i, 31
  %_13.i.i.i.i.i11.i = zext nneg i8 %_36.i.i.i.i.i10.i to i32
  %_14.i.i.i.i.i.i = icmp slt i8 %z.i.i.i.i.i9.i, -64
  br i1 %_14.i.i.i.i.i.i, label %bb6.i.i.i.i.i32.i, label %bb13.i.i.i.i.i.i

bb3.i.i.i.i.i41.i:                                ; preds = %bb17.i.i.i.i.i.i
  %_8.i.i.i.i.i.i = zext nneg i8 %w.i.i.i.i.i6.i to i32
  br label %bb2.i.i.i12.i

bb6.i.i.i.i.i32.i:                                ; preds = %bb4.i.i.i.i.i8.i
  %31 = icmp ne ptr %matcher.sroa.4.051.i, %_25.i16.i.i.i.i.i.i
  call void @llvm.assume(i1 %31)
  %_25.i22.i.i.i.i.i.i = getelementptr inbounds i8, ptr %_25.i28.i.i.i1213.i.i.i, i64 -3
  %y.i.i.i.i.i33.i = load i8, ptr %_25.i22.i.i.i.i.i.i, align 1, !alias.scope !16, !noalias !34, !noundef !4
  %_41.i.i.i.i.i34.i = and i8 %y.i.i.i.i.i33.i, 15
  %_18.i.i.i.i.i.i = zext nneg i8 %_41.i.i.i.i.i34.i to i32
  %_19.i.i.i.i.i.i = icmp slt i8 %y.i.i.i.i.i33.i, -64
  br i1 %_19.i.i.i.i.i.i, label %bb8.i.i.i.i.i36.i, label %bb11.i.i.i.i.i.i

bb13.i.i.i.i.i.i:                                 ; preds = %bb11.i.i.i.i.i.i, %bb4.i.i.i.i.i8.i
  %_2216.i.i.i.i.i = phi ptr [ %_2217.i.i.i.i.i, %bb11.i.i.i.i.i.i ], [ %_25.i16.i.i.i.i.i.i, %bb4.i.i.i.i.i8.i ]
  %ch.sroa.0.0.i.i.i.i.i.i = phi i32 [ %_26.i.i.i.i.i35.i, %bb11.i.i.i.i.i.i ], [ %_13.i.i.i.i.i11.i, %bb4.i.i.i.i.i8.i ]
  %_53.i.i.i.i.i.i = shl nuw nsw i32 %ch.sroa.0.0.i.i.i.i.i.i, 6
  %_55.i.i.i.i.i.i = and i8 %w.i.i.i.i.i6.i, 63
  %_54.i.i.i.i.i.i = zext nneg i8 %_55.i.i.i.i.i.i to i32
  %_28.i.i.i.i.i.i = or disjoint i32 %_53.i.i.i.i.i.i, %_54.i.i.i.i.i.i
  br label %bb2.i.i.i12.i

bb8.i.i.i.i.i36.i:                                ; preds = %bb6.i.i.i.i.i32.i
  %32 = icmp ne ptr %matcher.sroa.4.051.i, %_25.i22.i.i.i.i.i.i
  call void @llvm.assume(i1 %32)
  %_25.i28.i.i.i.i.i.i = getelementptr inbounds i8, ptr %_25.i28.i.i.i1213.i.i.i, i64 -4
  %x.i.i.i.i.i37.i = load i8, ptr %_25.i28.i.i.i.i.i.i, align 1, !alias.scope !16, !noalias !34, !noundef !4
  %_46.i.i.i.i.i.i = and i8 %x.i.i.i.i.i37.i, 7
  %_23.i.i.i.i.i.i = zext nneg i8 %_46.i.i.i.i.i.i to i32
  %_47.i.i.i.i.i38.i = shl nuw nsw i32 %_23.i.i.i.i.i.i, 6
  %_49.i.i.i.i.i39.i = and i8 %y.i.i.i.i.i33.i, 63
  %_48.i.i.i.i.i40.i = zext nneg i8 %_49.i.i.i.i.i39.i to i32
  %_24.i.i.i.i.i.i = or disjoint i32 %_47.i.i.i.i.i38.i, %_48.i.i.i.i.i40.i
  br label %bb11.i.i.i.i.i.i

bb11.i.i.i.i.i.i:                                 ; preds = %bb8.i.i.i.i.i36.i, %bb6.i.i.i.i.i32.i
  %_2217.i.i.i.i.i = phi ptr [ %_25.i28.i.i.i.i.i.i, %bb8.i.i.i.i.i36.i ], [ %_25.i22.i.i.i.i.i.i, %bb6.i.i.i.i.i32.i ]
  %ch.sroa.0.1.i.i.i.i.i.i = phi i32 [ %_24.i.i.i.i.i.i, %bb8.i.i.i.i.i36.i ], [ %_18.i.i.i.i.i.i, %bb6.i.i.i.i.i32.i ]
  %_50.i.i.i.i.i.i = shl nuw nsw i32 %ch.sroa.0.1.i.i.i.i.i.i, 6
  %_52.i.i.i.i.i.i = and i8 %z.i.i.i.i.i9.i, 63
  %_51.i.i.i.i.i.i = zext nneg i8 %_52.i.i.i.i.i.i to i32
  %_26.i.i.i.i.i35.i = or disjoint i32 %_50.i.i.i.i.i.i, %_51.i.i.i.i.i.i
  br label %bb13.i.i.i.i.i.i

bb2.i.i.i12.i:                                    ; preds = %bb13.i.i.i.i.i.i, %bb3.i.i.i.i.i41.i
  %_24.i.i.i.i = phi ptr [ %_25.i.i.i.i.i.i.i, %bb3.i.i.i.i.i41.i ], [ %_2216.i.i.i.i.i, %bb13.i.i.i.i.i.i ]
  %_0.sroa.4.1.i.ph.i.i.i.i.i = phi i32 [ %_8.i.i.i.i.i.i, %bb3.i.i.i.i.i41.i ], [ %_28.i.i.i.i.i.i, %bb13.i.i.i.i.i.i ]
  %33 = icmp samesign ult i32 %_0.sroa.4.1.i.ph.i.i.i.i.i, 1114112
  call void @llvm.assume(i1 %33)
  switch i32 %_0.sroa.4.1.i.ph.i.i.i.i.i, label %bb1.i.i.i.i.i.i16.i [
    i32 32, label %bb5.i.i13.i
    i32 13, label %bb5.i.i13.i
    i32 12, label %bb5.i.i13.i
    i32 11, label %bb5.i.i13.i
    i32 10, label %bb5.i.i13.i
    i32 9, label %bb5.i.i13.i
  ]

bb1.i.i.i.i.i.i16.i:                              ; preds = %bb2.i.i.i12.i
  %_4.i.i.i.i.i.i17.i = icmp samesign ugt i32 %_0.sroa.4.1.i.ph.i.i.i.i.i, 127
  br i1 %_4.i.i.i.i.i.i17.i, label %bb5.i.i.i.i.i.i19.i, label %bb7.i

bb5.i.i.i.i.i.i19.i:                              ; preds = %bb1.i.i.i.i.i.i16.i
  %_3.i.i.i.i.i.i.i20.i = lshr i32 %_0.sroa.4.1.i.ph.i.i.i.i.i, 8
  switch i32 %_3.i.i.i.i.i.i.i20.i, label %bb7.i [
    i32 0, label %bb6.i.i.i.i.i.i.i29.i
    i32 22, label %bb4.i.i.i.i.i.i.i28.i
    i32 32, label %bb7.i.i.i.i.i.i.i24.i
    i32 48, label %bb2.i.i.i.i.i.i.i21.i
  ]

bb4.i.i.i.i.i.i.i28.i:                            ; preds = %bb5.i.i.i.i.i.i19.i
  %34 = icmp eq i32 %_0.sroa.4.1.i.ph.i.i.i.i.i, 5760
  %35 = zext i1 %34 to i8
  br label %"_ZN53_$LT$F$u20$as$u20$core..str..pattern..MultiCharEq$GT$7matches17h39b8e1c983bb26a6E.exit.i.i.i22.i"

bb2.i.i.i.i.i.i.i21.i:                            ; preds = %bb5.i.i.i.i.i.i19.i
  %36 = icmp eq i32 %_0.sroa.4.1.i.ph.i.i.i.i.i, 12288
  %37 = zext i1 %36 to i8
  br label %"_ZN53_$LT$F$u20$as$u20$core..str..pattern..MultiCharEq$GT$7matches17h39b8e1c983bb26a6E.exit.i.i.i22.i"

bb6.i.i.i.i.i.i.i29.i:                            ; preds = %bb5.i.i.i.i.i.i19.i
  %38 = and i32 %_0.sroa.4.1.i.ph.i.i.i.i.i, 255
  %_8.i.i.i.i.i.i.i30.i = zext nneg i32 %38 to i64
  %39 = getelementptr inbounds nuw i8, ptr @_ZN4core7unicode12unicode_data11white_space14WHITESPACE_MAP17h4cf41e25fd3a5318E, i64 %_8.i.i.i.i.i.i.i30.i
  %_6.i.i.i.i.i.i.i31.i = load i8, ptr %39, align 1, !noalias !48, !noundef !4
  br label %"_ZN53_$LT$F$u20$as$u20$core..str..pattern..MultiCharEq$GT$7matches17h39b8e1c983bb26a6E.exit.i.i.i22.i"

bb7.i.i.i.i.i.i.i24.i:                            ; preds = %bb5.i.i.i.i.i.i19.i
  %40 = and i32 %_0.sroa.4.1.i.ph.i.i.i.i.i, 255
  %_14.i.i.i.i.i.i.i25.i = zext nneg i32 %40 to i64
  %41 = getelementptr inbounds nuw i8, ptr @_ZN4core7unicode12unicode_data11white_space14WHITESPACE_MAP17h4cf41e25fd3a5318E, i64 %_14.i.i.i.i.i.i.i25.i
  %_12.i.i.i.i.i.i.i26.i = load i8, ptr %41, align 1, !noalias !48, !noundef !4
  %_11.i.i.i.i.i.i.i27.i = lshr i8 %_12.i.i.i.i.i.i.i26.i, 1
  br label %"_ZN53_$LT$F$u20$as$u20$core..str..pattern..MultiCharEq$GT$7matches17h39b8e1c983bb26a6E.exit.i.i.i22.i"

"_ZN53_$LT$F$u20$as$u20$core..str..pattern..MultiCharEq$GT$7matches17h39b8e1c983bb26a6E.exit.i.i.i22.i": ; preds = %bb7.i.i.i.i.i.i.i24.i, %bb6.i.i.i.i.i.i.i29.i, %bb2.i.i.i.i.i.i.i21.i, %bb4.i.i.i.i.i.i.i28.i
  %_0.sroa.0.0.i.i.i.i.i.i.i23.i = phi i8 [ %_6.i.i.i.i.i.i.i31.i, %bb6.i.i.i.i.i.i.i29.i ], [ %35, %bb4.i.i.i.i.i.i.i28.i ], [ %_11.i.i.i.i.i.i.i27.i, %bb7.i.i.i.i.i.i.i24.i ], [ %37, %bb2.i.i.i.i.i.i.i21.i ]
  %42 = trunc i8 %_0.sroa.0.0.i.i.i.i.i.i.i23.i to i1
  br i1 %42, label %bb5.i.i13.i, label %bb7.i

bb5.i.i13.i:                                      ; preds = %"_ZN53_$LT$F$u20$as$u20$core..str..pattern..MultiCharEq$GT$7matches17h39b8e1c983bb26a6E.exit.i.i.i22.i", %bb2.i.i.i12.i, %bb2.i.i.i12.i, %bb2.i.i.i12.i, %bb2.i.i.i12.i, %bb2.i.i.i12.i, %bb2.i.i.i12.i
  %43 = icmp eq ptr %matcher.sroa.4.051.i, %_24.i.i.i.i
  br i1 %43, label %bb11, label %bb17.i.i.i.i.i.i

bb7.i:                                            ; preds = %"_ZN53_$LT$F$u20$as$u20$core..str..pattern..MultiCharEq$GT$7matches17h39b8e1c983bb26a6E.exit.i.i.i22.i", %bb5.i.i.i.i.i.i19.i, %bb1.i.i.i.i.i.i16.i
  %44 = ptrtoint ptr %_25.i28.i.i.i1213.i.i.i to i64
  %45 = ptrtoint ptr %matcher.sroa.4.051.i to i64
  %46 = sub i64 %matcher.sroa.14.049.i, %45
  %_15.i6.i.i.i = add i64 %46, %44
  br label %bb11

bb11:                                             ; preds = %bb5.i.i.i, %bb5.i.i13.i, %bb7.i, %bb5.i7
  %i.sroa.0.062.i = phi i64 [ %i.sroa.0.0.i, %bb7.i ], [ %i.sroa.0.0.i, %bb5.i7 ], [ %i.sroa.0.0.i, %bb5.i.i13.i ], [ 0, %bb5.i.i.i ]
  %j.sroa.0.1.i = phi i64 [ %_15.i6.i.i.i, %bb7.i ], [ %matcher.sroa.14.049.i, %bb5.i7 ], [ %matcher.sroa.14.049.i, %bb5.i.i13.i ], [ 0, %bb5.i.i.i ]
  %new_len.i = sub nuw i64 %j.sroa.0.1.i, %i.sroa.0.062.i
  %data.i = getelementptr inbounds nuw i8, ptr %_29, i64 %i.sroa.0.062.i
  switch i64 %new_len.i, label %bb9.i [
    i64 0, label %bb2.i3
    i64 1, label %bb7.i8
  ]

bb7.i8:                                           ; preds = %bb11
  %47 = load i8, ptr %data.i, align 1, !alias.scope !49, !noalias !52, !noundef !4
  switch i8 %47, label %bb14.i.preheader [
    i8 43, label %bb2.i3
    i8 45, label %bb2.i3
  ]

bb14.i.preheader:                                 ; preds = %bb11.i, %bb40.i, %bb7.i8
  %digits.sroa.0.152.i.ph = phi ptr [ %rest.0.i, %bb11.i ], [ %data.i, %bb7.i8 ], [ %data.i, %bb40.i ]
  %digits.sroa.16.151.i.ph = phi i64 [ %rest.1.i, %bb11.i ], [ 1, %bb7.i8 ], [ %new_len.i, %bb40.i ]
  br label %bb14.i

bb9.i:                                            ; preds = %bb11
  %.pr.i = load i8, ptr %data.i, align 1, !alias.scope !49, !noalias !52
  %cond.i = icmp eq i8 %.pr.i, 43
  br i1 %cond.i, label %bb11.i, label %bb40.i

bb11.i:                                           ; preds = %bb9.i
  %rest.0.i = getelementptr inbounds nuw i8, ptr %data.i, i64 1
  %rest.1.i = add i64 %new_len.i, -1
  %48 = icmp ult i64 %new_len.i, 18
  br i1 %48, label %bb14.i.preheader, label %bb19.i.preheader

bb19.i.preheader:                                 ; preds = %bb40.i, %bb11.i
  %digits.sroa.16.0.i.ph = phi i64 [ %rest.1.i, %bb11.i ], [ %new_len.i, %bb40.i ]
  %digits.sroa.0.0.i.ph = phi ptr [ %rest.0.i, %bb11.i ], [ %data.i, %bb40.i ]
  br label %bb19.i

bb19.i:                                           ; preds = %bb19.i.preheader, %bb23.i
  %result.sroa.0.0.i = phi i64 [ %_76.0.i, %bb23.i ], [ 0, %bb19.i.preheader ]
  %digits.sroa.16.0.i = phi i64 [ %rest.14.i, %bb23.i ], [ %digits.sroa.16.0.i.ph, %bb19.i.preheader ]
  %digits.sroa.0.0.i = phi ptr [ %rest.03.i, %bb23.i ], [ %digits.sroa.0.0.i.ph, %bb19.i.preheader ]
  %_35.not.i = icmp eq i64 %digits.sroa.16.0.i, 0
  br i1 %_35.not.i, label %bb5, label %bb20.i

bb40.i:                                           ; preds = %bb9.i
  %49 = icmp ult i64 %new_len.i, 17
  br i1 %49, label %bb14.i.preheader, label %bb19.i.preheader

bb20.i:                                           ; preds = %bb19.i
  %_44.i = load i8, ptr %digits.sroa.0.0.i, align 1, !alias.scope !49, !noalias !52, !noundef !4
  %_43.i = zext i8 %_44.i to i32
  %50 = add nsw i32 %_43.i, -48
  %_14.i.i = icmp ult i32 %50, 10
  br i1 %_14.i.i, label %bb23.i, label %bb2.i3

bb23.i:                                           ; preds = %bb20.i
  %51 = call { i64, i1 } @llvm.umul.with.overflow.i64(i64 %result.sroa.0.0.i, i64 10)
  %_70.0.i = extractvalue { i64, i1 } %51, 0
  %rest.14.i = add i64 %digits.sroa.16.0.i, -1
  %rest.03.i = getelementptr inbounds nuw i8, ptr %digits.sroa.0.0.i, i64 1
  %_70.1.i = extractvalue { i64, i1 } %51, 1
  %x.i = zext nneg i32 %50 to i64
  %_76.0.i = add i64 %_70.0.i, %x.i
  %_76.1.not.i = icmp ult i64 %_76.0.i, %_70.0.i
  %or.cond = select i1 %_70.1.i, i1 true, i1 %_76.1.not.i
  br i1 %or.cond, label %bb2.i3, label %bb19.i

bb14.i:                                           ; preds = %bb14.i.preheader, %bb18.i
  %digits.sroa.0.152.i = phi ptr [ %rest.09.i, %bb18.i ], [ %digits.sroa.0.152.i.ph, %bb14.i.preheader ]
  %digits.sroa.16.151.i = phi i64 [ %rest.110.i, %bb18.i ], [ %digits.sroa.16.151.i.ph, %bb14.i.preheader ]
  %result.sroa.0.150.i = phi i64 [ %54, %bb18.i ], [ 0, %bb14.i.preheader ]
  %_25.i = load i8, ptr %digits.sroa.0.152.i, align 1, !alias.scope !49, !noalias !52, !noundef !4
  %_24.i = zext i8 %_25.i to i32
  %52 = add nsw i32 %_24.i, -48
  %_14.i42.i = icmp ult i32 %52, 10
  br i1 %_14.i42.i, label %bb18.i, label %bb2.i3

bb18.i:                                           ; preds = %bb14.i
  %53 = mul i64 %result.sroa.0.150.i, 10
  %rest.110.i = add nsw i64 %digits.sroa.16.151.i, -1
  %rest.09.i = getelementptr inbounds nuw i8, ptr %digits.sroa.0.152.i, i64 1
  %_29.i = zext nneg i32 %52 to i64
  %54 = add i64 %53, %_29.i
  %_18.not.i = icmp eq i64 %rest.110.i, 0
  br i1 %_18.not.i, label %bb5, label %bb14.i

bb2.i3:                                           ; preds = %bb20.i, %bb23.i, %bb14.i, %bb11, %bb7.i8, %bb7.i8
  %_11.sroa.4.0.ph = phi i8 [ 1, %bb7.i8 ], [ 1, %bb7.i8 ], [ 0, %bb11 ], [ 1, %bb14.i ], [ 1, %bb20.i ], [ 2, %bb23.i ]
  call void @llvm.lifetime.start.p0(i64 1, ptr nonnull %e.i2), !noalias !54
  store i8 %_11.sroa.4.0.ph, ptr %e.i2, align 1, !noalias !54
; invoke core::result::unwrap_failed
  invoke void @_ZN4core6result13unwrap_failed17h0501379eaec3e720E(ptr noalias noundef nonnull readonly align 1 captures(address, read_provenance) @alloc_00ae4b301f7fab8ac9617c03fcbd7274, i64 noundef 43, ptr noundef nonnull align 1 %e.i2, ptr noalias noundef readonly align 8 captures(address, read_provenance) dereferenceable(32) @vtable.2, ptr noalias noundef readonly align 8 captures(address, read_provenance) dereferenceable(24) @alloc_69b581a9cd327bc90a5fd6ab0f582b95) #15
          to label %.noexc unwind label %cleanup

.noexc:                                           ; preds = %bb2.i3
  unreachable

bb5:                                              ; preds = %bb19.i, %bb18.i
  %_11.sroa.1111.0 = phi i64 [ %54, %bb18.i ], [ %result.sroa.0.0.i, %bb19.i ]
  store i64 %_11.sroa.1111.0, ptr %idx, align 8
  call void @llvm.lifetime.start.p0(i64 48, ptr nonnull %_15)
  %_18 = icmp ult i64 %_11.sroa.1111.0, 5
  br i1 %_18, label %bb6, label %panic

bb6:                                              ; preds = %bb5
  %args1 = getelementptr inbounds nuw i32, ptr %arr, i64 %_11.sroa.1111.0
  call void @llvm.lifetime.start.p0(i64 32, ptr nonnull %args)
  store ptr %idx, ptr %args, align 8
  %_20.sroa.4.0..sroa_idx = getelementptr inbounds nuw i8, ptr %args, i64 8
  store ptr @"_ZN4core3fmt3num3imp54_$LT$impl$u20$core..fmt..Display$u20$for$u20$usize$GT$3fmt17h47414302a1568dceE", ptr %_20.sroa.4.0..sroa_idx, align 8
  %55 = getelementptr inbounds nuw i8, ptr %args, i64 16
  store ptr %args1, ptr %55, align 8
  %_21.sroa.4.0..sroa_idx = getelementptr inbounds nuw i8, ptr %args, i64 24
  store ptr @"_ZN4core3fmt3num3imp52_$LT$impl$u20$core..fmt..Display$u20$for$u20$i32$GT$3fmt17h1d34aa19ad65fef9E", ptr %_21.sroa.4.0..sroa_idx, align 8
  store ptr @alloc_9dbc8530e7c00a3264d046557416dcee, ptr %_15, align 8
  %56 = getelementptr inbounds nuw i8, ptr %_15, i64 8
  store i64 3, ptr %56, align 8
  %57 = getelementptr inbounds nuw i8, ptr %_15, i64 32
  store ptr null, ptr %57, align 8
  %58 = getelementptr inbounds nuw i8, ptr %_15, i64 16
  store ptr %args, ptr %58, align 8
  %59 = getelementptr inbounds nuw i8, ptr %_15, i64 24
  store i64 2, ptr %59, align 8
; invoke std::io::stdio::_print
  invoke void @_ZN3std2io5stdio6_print17h361a6d98ea723aceE(ptr noalias noundef nonnull align 8 captures(address) dereferenceable(48) %_15)
          to label %bb7 unwind label %cleanup

panic:                                            ; preds = %bb5
; invoke core::panicking::panic_bounds_check
  invoke void @_ZN4core9panicking18panic_bounds_check17hbc09f5d79f1a5789E(i64 noundef %_11.sroa.1111.0, i64 noundef 5, ptr noalias noundef readonly align 8 captures(address, read_provenance) dereferenceable(24) @alloc_3d0e4a3a73847fef13a56cc677ef6ac0) #15
          to label %unreachable unwind label %cleanup

unreachable:                                      ; preds = %panic
  unreachable

bb7:                                              ; preds = %bb6
  call void @llvm.lifetime.end.p0(i64 48, ptr nonnull %_15)
  call void @llvm.lifetime.end.p0(i64 32, ptr nonnull %args)
  %input.val5 = load i64, ptr %input, align 8
  %60 = icmp eq i64 %input.val5, 0
  br i1 %60, label %"_ZN4core3ptr42drop_in_place$LT$alloc..string..String$GT$17h4ca3b9897f0a7bdbE.exit10", label %"_ZN63_$LT$alloc..alloc..Global$u20$as$u20$core..alloc..Allocator$GT$10deallocate17h1e0b43146c957e5eE.exit.i.i.i4.i.i9"

"_ZN63_$LT$alloc..alloc..Global$u20$as$u20$core..alloc..Allocator$GT$10deallocate17h1e0b43146c957e5eE.exit.i.i.i4.i.i9": ; preds = %bb7
  %input.val6 = load ptr, ptr %_25.sroa.4.0.input.sroa_idx, align 8, !nonnull !4, !noundef !4
; call __rustc::__rust_dealloc
  call void @_RNvCskdKJRKLKjqM_7___rustc14___rust_dealloc(ptr noundef nonnull %input.val6, i64 noundef %input.val5, i64 noundef range(i64 1, -9223372036854775807) 1) #14
  br label %"_ZN4core3ptr42drop_in_place$LT$alloc..string..String$GT$17h4ca3b9897f0a7bdbE.exit10"

"_ZN4core3ptr42drop_in_place$LT$alloc..string..String$GT$17h4ca3b9897f0a7bdbE.exit10": ; preds = %bb7, %"_ZN63_$LT$alloc..alloc..Global$u20$as$u20$core..alloc..Allocator$GT$10deallocate17h1e0b43146c957e5eE.exit.i.i.i4.i.i9"
  call void @llvm.lifetime.end.p0(i64 24, ptr nonnull %input)
  call void @llvm.lifetime.end.p0(i64 20, ptr nonnull %arr)
  ret void

bb10:                                             ; preds = %"_ZN63_$LT$alloc..alloc..Global$u20$as$u20$core..alloc..Allocator$GT$10deallocate17h1e0b43146c957e5eE.exit.i.i.i4.i.i", %cleanup.body
  resume { ptr, i32 } %eh.lpad-body
}

; Function Attrs: mustprogress nocallback nofree nosync nounwind willreturn memory(argmem: readwrite)
declare void @llvm.lifetime.start.p0(i64 immarg, ptr captures(none)) #3

; Function Attrs: mustprogress nocallback nofree nosync nounwind willreturn memory(argmem: readwrite)
declare void @llvm.lifetime.end.p0(i64 immarg, ptr captures(none)) #3

; Function Attrs: mustprogress nocallback nofree nosync nounwind willreturn memory(inaccessiblemem: write)
declare void @llvm.assume(i1 noundef) #4

; Function Attrs: nounwind nonlazybind uwtable
declare noundef range(i32 0, 10) i32 @rust_eh_personality(i32 noundef, i32 noundef, i64 noundef, ptr noundef, ptr noundef) unnamed_addr #5

; std::rt::lang_start_internal
; Function Attrs: nonlazybind uwtable
declare noundef i64 @_ZN3std2rt19lang_start_internal17h6ba36b077a531782E(ptr noundef nonnull align 1, ptr noalias noundef readonly align 8 captures(address, read_provenance) dereferenceable(48), i64 noundef, ptr noundef, i8 noundef) unnamed_addr #0

; Function Attrs: mustprogress nocallback nofree nosync nounwind speculatable willreturn memory(none)
declare { i64, i1 } @llvm.umul.with.overflow.i64(i64, i64) #6

; core::panicking::panic_in_cleanup
; Function Attrs: cold minsize noinline noreturn nounwind nonlazybind optsize uwtable
declare void @_ZN4core9panicking16panic_in_cleanup17h5eff40bcc4481d72E() unnamed_addr #7

; <std::io::error::Error as core::fmt::Debug>::fmt
; Function Attrs: nonlazybind uwtable
declare noundef zeroext i1 @"_ZN58_$LT$std..io..error..Error$u20$as$u20$core..fmt..Debug$GT$3fmt17h62ceb23194058131E"(ptr noalias noundef readonly align 8 captures(address, read_provenance) dereferenceable(8), ptr noalias noundef align 8 dereferenceable(24)) unnamed_addr #0

; core::result::unwrap_failed
; Function Attrs: cold noinline noreturn nonlazybind uwtable
declare void @_ZN4core6result13unwrap_failed17h0501379eaec3e720E(ptr noalias noundef nonnull readonly align 1 captures(address, read_provenance), i64 noundef, ptr noundef nonnull align 1, ptr noalias noundef readonly align 8 captures(address, read_provenance) dereferenceable(32), ptr noalias noundef readonly align 8 captures(address, read_provenance) dereferenceable(24)) unnamed_addr #8

; core::panicking::panic_bounds_check
; Function Attrs: cold minsize noinline noreturn nonlazybind optsize uwtable
declare void @_ZN4core9panicking18panic_bounds_check17hbc09f5d79f1a5789E(i64 noundef, i64 noundef, ptr noalias noundef readonly align 8 captures(address, read_provenance) dereferenceable(24)) unnamed_addr #9

; __rustc::__rust_dealloc
; Function Attrs: nounwind nonlazybind allockind("free") uwtable
declare void @_RNvCskdKJRKLKjqM_7___rustc14___rust_dealloc(ptr allocptr noundef, i64 noundef, i64 noundef) unnamed_addr #10

; core::fmt::Formatter::write_str
; Function Attrs: nonlazybind uwtable
declare noundef zeroext i1 @_ZN4core3fmt9Formatter9write_str17haacafd99ed76659fE(ptr noalias noundef align 8 dereferenceable(24), ptr noalias noundef nonnull readonly align 1 captures(address, read_provenance), i64 noundef) unnamed_addr #0

; core::fmt::Formatter::debug_struct_field1_finish
; Function Attrs: nonlazybind uwtable
declare noundef zeroext i1 @_ZN4core3fmt9Formatter26debug_struct_field1_finish17h8a12e96a3fe33b10E(ptr noalias noundef align 8 dereferenceable(24), ptr noalias noundef nonnull readonly align 1 captures(address, read_provenance), i64 noundef, ptr noalias noundef nonnull readonly align 1 captures(address, read_provenance), i64 noundef, ptr noundef nonnull align 1, ptr noalias noundef readonly align 8 captures(address, read_provenance) dereferenceable(32)) unnamed_addr #0

; std::io::stdio::_print
; Function Attrs: nonlazybind uwtable
declare void @_ZN3std2io5stdio6_print17h361a6d98ea723aceE(ptr dead_on_return noalias noundef align 8 captures(address) dereferenceable(48)) unnamed_addr #0

; std::io::stdio::stdin
; Function Attrs: nonlazybind uwtable
declare noundef nonnull align 8 ptr @_ZN3std2io5stdio5stdin17h098929a647404888E() unnamed_addr #0

; std::io::stdio::Stdin::read_line
; Function Attrs: nonlazybind uwtable
declare { i64, ptr } @_ZN3std2io5stdio5Stdin9read_line17h904ff10c15f35ae9E(ptr noalias noundef readonly align 8 captures(address, read_provenance) dereferenceable(8), ptr noalias noundef align 8 dereferenceable(24)) unnamed_addr #0

; core::fmt::num::imp::<impl core::fmt::Display for usize>::fmt
; Function Attrs: nonlazybind uwtable
declare noundef zeroext i1 @"_ZN4core3fmt3num3imp54_$LT$impl$u20$core..fmt..Display$u20$for$u20$usize$GT$3fmt17h47414302a1568dceE"(ptr noalias noundef readonly align 8 captures(address, read_provenance) dereferenceable(8), ptr noalias noundef align 8 dereferenceable(24)) unnamed_addr #0

; core::fmt::num::imp::<impl core::fmt::Display for i32>::fmt
; Function Attrs: nonlazybind uwtable
declare noundef zeroext i1 @"_ZN4core3fmt3num3imp52_$LT$impl$u20$core..fmt..Display$u20$for$u20$i32$GT$3fmt17h1d34aa19ad65fef9E"(ptr noalias noundef readonly align 4 captures(address, read_provenance) dereferenceable(4), ptr noalias noundef align 8 dereferenceable(24)) unnamed_addr #0

; Function Attrs: nonlazybind
define noundef i32 @main(i32 %0, ptr %1) unnamed_addr #11 {
top:
  %_7.i = alloca [8 x i8], align 8
  %2 = sext i32 %0 to i64
  call void @llvm.lifetime.start.p0(i64 8, ptr nonnull %_7.i)
  store ptr @_ZN7dynamic4main17h6bc5bc0f8707dddfE, ptr %_7.i, align 8
; call std::rt::lang_start_internal
  %_0.i = call noundef i64 @_ZN3std2rt19lang_start_internal17h6ba36b077a531782E(ptr noundef nonnull align 1 %_7.i, ptr noalias noundef readonly align 8 captures(address, read_provenance) dereferenceable(48) @vtable.0, i64 noundef %2, ptr noundef %1, i8 noundef 0)
  call void @llvm.lifetime.end.p0(i64 8, ptr nonnull %_7.i)
  %3 = trunc i64 %_0.i to i32
  ret i32 %3
}

; Function Attrs: nocallback nofree nosync nounwind willreturn memory(inaccessiblemem: readwrite)
declare void @llvm.experimental.noalias.scope.decl(metadata) #12

; Function Attrs: nocallback nofree nosync nounwind willreturn memory(argmem: read)
declare ptr @llvm.load.relative.i64(ptr, i64) #13

attributes #0 = { nonlazybind uwtable "probe-stack"="inline-asm" "target-cpu"="x86-64" }
attributes #1 = { inlinehint nonlazybind uwtable "probe-stack"="inline-asm" "target-cpu"="x86-64" }
attributes #2 = { noinline nonlazybind uwtable "probe-stack"="inline-asm" "target-cpu"="x86-64" }
attributes #3 = { mustprogress nocallback nofree nosync nounwind willreturn memory(argmem: readwrite) }
attributes #4 = { mustprogress nocallback nofree nosync nounwind willreturn memory(inaccessiblemem: write) }
attributes #5 = { nounwind nonlazybind uwtable "probe-stack"="inline-asm" "target-cpu"="x86-64" }
attributes #6 = { mustprogress nocallback nofree nosync nounwind speculatable willreturn memory(none) }
attributes #7 = { cold minsize noinline noreturn nounwind nonlazybind optsize uwtable "probe-stack"="inline-asm" "target-cpu"="x86-64" }
attributes #8 = { cold noinline noreturn nonlazybind uwtable "probe-stack"="inline-asm" "target-cpu"="x86-64" }
attributes #9 = { cold minsize noinline noreturn nonlazybind optsize uwtable "probe-stack"="inline-asm" "target-cpu"="x86-64" }
attributes #10 = { nounwind nonlazybind allockind("free") uwtable "alloc-family"="__rust_alloc" "probe-stack"="inline-asm" "target-cpu"="x86-64" }
attributes #11 = { nonlazybind "probe-stack"="inline-asm" "target-cpu"="x86-64" }
attributes #12 = { nocallback nofree nosync nounwind willreturn memory(inaccessiblemem: readwrite) }
attributes #13 = { nocallback nofree nosync nounwind willreturn memory(argmem: read) }
attributes #14 = { nounwind }
attributes #15 = { noreturn }
attributes #16 = { cold }
attributes #17 = { cold noreturn nounwind }

!llvm.module.flags = !{!0, !1, !2}
!llvm.ident = !{!3}

!0 = !{i32 8, !"PIC Level", i32 2}
!1 = !{i32 7, !"PIE Level", i32 2}
!2 = !{i32 2, !"RtLibUseGOT", i32 1}
!3 = !{!"rustc version 1.91.1 (ed61e7d7e 2025-11-07)"}
!4 = !{}
!5 = !{i64 14895479161940793}
!6 = !{i64 1}
!7 = !{i8 0, i8 5}
!8 = !{!9}
!9 = distinct !{!9, !10, !"_ZN3std2rt10lang_start28_$u7b$$u7b$closure$u7d$$u7d$17hd6a3549c3f7fc45eE: %_1"}
!10 = distinct !{!10, !"_ZN3std2rt10lang_start28_$u7b$$u7b$closure$u7d$$u7d$17hd6a3549c3f7fc45eE"}
!11 = !{!"branch_weights", i32 2000, i32 6001}
!12 = !{i64 8}
!13 = !{i64 0, i64 -9223372036854775808}
!14 = !{i64 1, i64 0}
!15 = !{!"branch_weights", !"expected", i32 1, i32 2000}
!16 = !{!17}
!17 = distinct !{!17, !18, !"_ZN4core3str21_$LT$impl$u20$str$GT$12trim_matches17h4b5cc6a23a2fdc94E: %self.0"}
!18 = distinct !{!18, !"_ZN4core3str21_$LT$impl$u20$str$GT$12trim_matches17h4b5cc6a23a2fdc94E"}
!19 = !{!20, !22, !24, !26, !27, !29, !30, !32}
!20 = distinct !{!20, !21, !"_ZN4core3str11validations15next_code_point17hbc038c8a07ce5452E: %bytes"}
!21 = distinct !{!21, !"_ZN4core3str11validations15next_code_point17hbc038c8a07ce5452E"}
!22 = distinct !{!22, !23, !"_ZN87_$LT$core..str..iter..CharIndices$u20$as$u20$core..iter..traits..iterator..Iterator$GT$4next17h48457e68ea1e620eE: %self"}
!23 = distinct !{!23, !"_ZN87_$LT$core..str..iter..CharIndices$u20$as$u20$core..iter..traits..iterator..Iterator$GT$4next17h48457e68ea1e620eE"}
!24 = distinct !{!24, !25, !"_ZN97_$LT$core..str..pattern..MultiCharEqSearcher$LT$C$GT$$u20$as$u20$core..str..pattern..Searcher$GT$4next17hf9b964a00c59d7ebE: %_0"}
!25 = distinct !{!25, !"_ZN97_$LT$core..str..pattern..MultiCharEqSearcher$LT$C$GT$$u20$as$u20$core..str..pattern..Searcher$GT$4next17hf9b964a00c59d7ebE"}
!26 = distinct !{!26, !25, !"_ZN97_$LT$core..str..pattern..MultiCharEqSearcher$LT$C$GT$$u20$as$u20$core..str..pattern..Searcher$GT$4next17hf9b964a00c59d7ebE: %self"}
!27 = distinct !{!27, !28, !"_ZN4core3str7pattern8Searcher11next_reject17hb93ebae991f40bffE: %_0"}
!28 = distinct !{!28, !"_ZN4core3str7pattern8Searcher11next_reject17hb93ebae991f40bffE"}
!29 = distinct !{!29, !28, !"_ZN4core3str7pattern8Searcher11next_reject17hb93ebae991f40bffE: %self"}
!30 = distinct !{!30, !31, !"_ZN99_$LT$core..str..pattern..CharPredicateSearcher$LT$F$GT$$u20$as$u20$core..str..pattern..Searcher$GT$11next_reject17h08983e9f25d562e1E: %_0"}
!31 = distinct !{!31, !"_ZN99_$LT$core..str..pattern..CharPredicateSearcher$LT$F$GT$$u20$as$u20$core..str..pattern..Searcher$GT$11next_reject17h08983e9f25d562e1E"}
!32 = distinct !{!32, !31, !"_ZN99_$LT$core..str..pattern..CharPredicateSearcher$LT$F$GT$$u20$as$u20$core..str..pattern..Searcher$GT$11next_reject17h08983e9f25d562e1E: %self"}
!33 = !{!24, !26, !27, !29, !30, !32, !17}
!34 = !{!35, !37, !39, !41, !42, !44, !45, !47}
!35 = distinct !{!35, !36, !"_ZN4core3str11validations23next_code_point_reverse17h615b9ae40e33c2eaE: %bytes"}
!36 = distinct !{!36, !"_ZN4core3str11validations23next_code_point_reverse17h615b9ae40e33c2eaE"}
!37 = distinct !{!37, !38, !"_ZN102_$LT$core..str..iter..CharIndices$u20$as$u20$core..iter..traits..double_ended..DoubleEndedIterator$GT$9next_back17h76e3bd467a52c44bE: %self"}
!38 = distinct !{!38, !"_ZN102_$LT$core..str..iter..CharIndices$u20$as$u20$core..iter..traits..double_ended..DoubleEndedIterator$GT$9next_back17h76e3bd467a52c44bE"}
!39 = distinct !{!39, !40, !"_ZN104_$LT$core..str..pattern..MultiCharEqSearcher$LT$C$GT$$u20$as$u20$core..str..pattern..ReverseSearcher$GT$9next_back17h6015a9a94f94e13dE: %_0"}
!40 = distinct !{!40, !"_ZN104_$LT$core..str..pattern..MultiCharEqSearcher$LT$C$GT$$u20$as$u20$core..str..pattern..ReverseSearcher$GT$9next_back17h6015a9a94f94e13dE"}
!41 = distinct !{!41, !40, !"_ZN104_$LT$core..str..pattern..MultiCharEqSearcher$LT$C$GT$$u20$as$u20$core..str..pattern..ReverseSearcher$GT$9next_back17h6015a9a94f94e13dE: %self"}
!42 = distinct !{!42, !43, !"_ZN4core3str7pattern15ReverseSearcher16next_reject_back17hfe3f2bdd53f8eed8E: %_0"}
!43 = distinct !{!43, !"_ZN4core3str7pattern15ReverseSearcher16next_reject_back17hfe3f2bdd53f8eed8E"}
!44 = distinct !{!44, !43, !"_ZN4core3str7pattern15ReverseSearcher16next_reject_back17hfe3f2bdd53f8eed8E: %self"}
!45 = distinct !{!45, !46, !"_ZN106_$LT$core..str..pattern..CharPredicateSearcher$LT$F$GT$$u20$as$u20$core..str..pattern..ReverseSearcher$GT$16next_reject_back17h043cafcf5d56a936E: %_0"}
!46 = distinct !{!46, !"_ZN106_$LT$core..str..pattern..CharPredicateSearcher$LT$F$GT$$u20$as$u20$core..str..pattern..ReverseSearcher$GT$16next_reject_back17h043cafcf5d56a936E"}
!47 = distinct !{!47, !46, !"_ZN106_$LT$core..str..pattern..CharPredicateSearcher$LT$F$GT$$u20$as$u20$core..str..pattern..ReverseSearcher$GT$16next_reject_back17h043cafcf5d56a936E: %self"}
!48 = !{!39, !41, !42, !44, !45, !47, !17}
!49 = !{!50}
!50 = distinct !{!50, !51, !"_ZN4core3num23_$LT$impl$u20$usize$GT$16from_ascii_radix17h7279a7f1accd3813E: %src.0"}
!51 = distinct !{!51, !"_ZN4core3num23_$LT$impl$u20$usize$GT$16from_ascii_radix17h7279a7f1accd3813E"}
!52 = !{!53}
!53 = distinct !{!53, !51, !"_ZN4core3num23_$LT$impl$u20$usize$GT$16from_ascii_radix17h7279a7f1accd3813E: %_0"}
!54 = !{!55}
!55 = distinct !{!55, !56, !"_ZN4core6result19Result$LT$T$C$E$GT$6unwrap17h7f7e80f0d4612b05E: %self"}
!56 = distinct !{!56, !"_ZN4core6result19Result$LT$T$C$E$GT$6unwrap17h7f7e80f0d4612b05E"}
