; ModuleID = 'dynamic.c513a65b6d74395f-cgu.0'
source_filename = "dynamic.c513a65b6d74395f-cgu.0"
target datalayout = "e-m:e-p270:32:32-p271:32:32-p272:64:64-i64:64-i128:128-f80:128-n8:16:32:64-S128"
target triple = "x86_64-unknown-linux-gnu"

%"core::fmt::rt::Argument<'_>" = type { %"core::fmt::rt::ArgumentType<'_>" }
%"core::fmt::rt::ArgumentType<'_>" = type { ptr, [1 x i64] }

@anon.17a64ccdb0dd3b2223636ea1105fd72b.0 = private unnamed_addr constant <{ [8 x i8], [4 x i8], [4 x i8] }> <{ [8 x i8] undef, [4 x i8] c"\00\00\11\00", [4 x i8] undef }>, align 8
@alloc_5812f59b5ea3b3def17ff43dfa536d82 = private unnamed_addr constant [81 x i8] c"/rustc/ed61e7d7e242494fb7057f2657300d9e77bb4fcb/library/core/src/char/methods.rs\00", align 1
@alloc_2925e2a6c2ac77848dfa2a589f28dc35 = private unnamed_addr constant <{ ptr, [16 x i8] }> <{ ptr @alloc_5812f59b5ea3b3def17ff43dfa536d82, [16 x i8] c"P\00\00\00\00\00\00\00\EF\00\00\00\12\00\00\00" }>, align 8
@alloc_9c482f2f4ee4370f43752c111033314e = private unnamed_addr constant [81 x i8] c"/rustc/ed61e7d7e242494fb7057f2657300d9e77bb4fcb/library/core/src/ptr/non_null.rs\00", align 1
@alloc_9c07a1c5fd625bcfd1904a658efdc61b = private unnamed_addr constant <{ ptr, [16 x i8] }> <{ ptr @alloc_9c482f2f4ee4370f43752c111033314e, [16 x i8] c"P\00\00\00\00\00\00\00\E3\02\00\003\00\00\00" }>, align 8
@alloc_902d0502498a7867f18a1b093eb45298 = private unnamed_addr constant [91 x i8] c"/rustc/ed61e7d7e242494fb7057f2657300d9e77bb4fcb/library/std/src/io/error/repr_bitpacked.rs\00", align 1
@alloc_c46812334728ce009f8cea92fbb7a3bb = private unnamed_addr constant <{ ptr, [16 x i8] }> <{ ptr @alloc_902d0502498a7867f18a1b093eb45298, [16 x i8] c"Z\00\00\00\00\00\00\00\11\01\00\00\1A\00\00\00" }>, align 8
@alloc_a500d906b91607583596fa15e63c2ada = private unnamed_addr constant [40 x i8] c"internal error: entered unreachable code", align 1
@alloc_df38229897fa3f90ed81b968e38fcae7 = private unnamed_addr constant <{ ptr, [16 x i8] }> <{ ptr @alloc_902d0502498a7867f18a1b093eb45298, [16 x i8] c"Z\00\00\00\00\00\00\00\22\01\00\00\0D\00\00\00" }>, align 8
@vtable.0 = private constant <{ [24 x i8], ptr, ptr, ptr }> <{ [24 x i8] c"\00\00\00\00\00\00\00\00\08\00\00\00\00\00\00\00\08\00\00\00\00\00\00\00", ptr @"_ZN4core3ops8function6FnOnce40call_once$u7b$$u7b$vtable.shim$u7d$$u7d$17h4116075843867654E", ptr @"_ZN3std2rt10lang_start28_$u7b$$u7b$closure$u7d$$u7d$17hd6a3549c3f7fc45eE", ptr @"_ZN3std2rt10lang_start28_$u7b$$u7b$closure$u7d$$u7d$17hd6a3549c3f7fc45eE" }>, align 8, !dbg !0
@anon.17a64ccdb0dd3b2223636ea1105fd72b.1 = private unnamed_addr constant <{ [8 x i8], [8 x i8] }> <{ [8 x i8] zeroinitializer, [8 x i8] undef }>, align 8
@alloc_dbcce5cb8873847766db4f16f930a00e = private unnamed_addr constant [186 x i8] c"unsafe precondition(s) violated: isize::unchecked_neg cannot overflow\0A\0AThis indicates a bug in the program. This Undefined Behavior check is optional, and cannot be relied on for safety.", align 1
@alloc_e237299e4bb43e9cd7106e57333349ad = private unnamed_addr constant [76 x i8] c"/rustc/ed61e7d7e242494fb7057f2657300d9e77bb4fcb/library/core/src/num/mod.rs\00", align 1
@alloc_ce0610c284ab9716c052bc29463b18fc = private unnamed_addr constant <{ ptr, [16 x i8] }> <{ ptr @alloc_e237299e4bb43e9cd7106e57333349ad, [16 x i8] c"K\00\00\00\00\00\00\00w\06\00\00\01\00\00\00" }>, align 8
@alloc_560a59ed819b9d9a5841f6e731c4c8e5 = private unnamed_addr constant [210 x i8] c"unsafe precondition(s) violated: NonNull::new_unchecked requires that the pointer is non-null\0A\0AThis indicates a bug in the program. This Undefined Behavior check is optional, and cannot be relied on for safety.", align 1
@alloc_f8be598209e2f834cf2d2b9cc4a8e7e5 = private unnamed_addr constant <{ ptr, [16 x i8] }> <{ ptr @alloc_9c482f2f4ee4370f43752c111033314e, [16 x i8] c"P\00\00\00\00\00\00\00\B9\03\00\00 \00\00\00" }>, align 8
@alloc_ec595fc0e82ef92fc59bd74f68296eae = private unnamed_addr constant [73 x i8] c"assertion failed: 0 < pointee_size && pointee_size <= isize::MAX as usize", align 1
@alloc_de4e626d456b04760e72bc785ed7e52a = private unnamed_addr constant [201 x i8] c"unsafe precondition(s) violated: ptr::offset_from_unsigned requires `self >= origin`\0A\0AThis indicates a bug in the program. This Undefined Behavior check is optional, and cannot be relied on for safety.", align 1
@anon.17a64ccdb0dd3b2223636ea1105fd72b.2 = private unnamed_addr constant <{ [4 x i8], [4 x i8] }> <{ [4 x i8] zeroinitializer, [4 x i8] undef }>, align 4
@alloc_d11c91003c30fc64cdedefcfd2d1727f = private unnamed_addr constant [84 x i8] c"/rustc/ed61e7d7e242494fb7057f2657300d9e77bb4fcb/library/core/src/str/validations.rs\00", align 1
@alloc_529b6025d83b9ebb0e57fdfa1395d046 = private unnamed_addr constant <{ ptr, [16 x i8] }> <{ ptr @alloc_d11c91003c30fc64cdedefcfd2d1727f, [16 x i8] c"S\00\00\00\00\00\00\000\00\00\00$\00\00\00" }>, align 8
@alloc_7f873a0e7c47e0ef63cb2a1c0771ddcd = private unnamed_addr constant <{ ptr, [16 x i8] }> <{ ptr @alloc_d11c91003c30fc64cdedefcfd2d1727f, [16 x i8] c"S\00\00\00\00\00\00\007\00\00\00(\00\00\00" }>, align 8
@alloc_5b1ece176c586484ef2b256193cf7173 = private unnamed_addr constant <{ ptr, [16 x i8] }> <{ ptr @alloc_d11c91003c30fc64cdedefcfd2d1727f, [16 x i8] c"S\00\00\00\00\00\00\00?\00\00\00,\00\00\00" }>, align 8
@alloc_d35d46144934c9827c8be2c636a8f370 = private unnamed_addr constant <{ ptr, [16 x i8] }> <{ ptr @alloc_d11c91003c30fc64cdedefcfd2d1727f, [16 x i8] c"S\00\00\00\00\00\00\00]\00\00\00)\00\00\00" }>, align 8
@alloc_665d5d661668e66e88a8de838b13b717 = private unnamed_addr constant <{ ptr, [16 x i8] }> <{ ptr @alloc_d11c91003c30fc64cdedefcfd2d1727f, [16 x i8] c"S\00\00\00\00\00\00\00b\00\00\00-\00\00\00" }>, align 8
@alloc_5ed187e3efe0ef0d2eaa93b916f4b9e6 = private unnamed_addr constant <{ ptr, [16 x i8] }> <{ ptr @alloc_d11c91003c30fc64cdedefcfd2d1727f, [16 x i8] c"S\00\00\00\00\00\00\00g\00\00\001\00\00\00" }>, align 8
@alloc_3366e88ddaea6e8becd9852c131ee4f3 = private unnamed_addr constant [76 x i8] c"/rustc/ed61e7d7e242494fb7057f2657300d9e77bb4fcb/library/core/src/str/mod.rs\00", align 1
@alloc_58f83348092d5ee291504bc000cb25c3 = private unnamed_addr constant <{ ptr, [16 x i8] }> <{ ptr @alloc_3366e88ddaea6e8becd9852c131ee4f3, [16 x i8] c"K\00\00\00\00\00\00\00\A3\02\00\00\16\00\00\00" }>, align 8
@alloc_91f2a00ff2cd9cdc4bb205a66832e2bb = private unnamed_addr constant [219 x i8] c"unsafe precondition(s) violated: str::get_unchecked requires that the range is within the string slice\0A\0AThis indicates a bug in the program. This Undefined Behavior check is optional, and cannot be relied on for safety.", align 1
@alloc_4dc07e69e5d34e9d1484dfbbef0bb9b1 = private unnamed_addr constant [174 x i8] c"unsafe precondition(s) violated: invalid value for `char`\0A\0AThis indicates a bug in the program. This Undefined Behavior check is optional, and cannot be relied on for safety.", align 1
@alloc_78b6a49e36fe808e0ef950c2feb9fafc = private unnamed_addr constant [71 x i8] c"to_digit: invalid radix -- radix must be in the range 2 to 36 inclusive", align 1
@alloc_708eb9f2492b697e0d761b647be5d46c = private unnamed_addr constant <{ ptr, [8 x i8] }> <{ ptr @alloc_78b6a49e36fe808e0ef950c2feb9fafc, [8 x i8] c"G\00\00\00\00\00\00\00" }>, align 8
@alloc_8d0c494df655f9d67b952dcf71fa636b = private unnamed_addr constant <{ ptr, [16 x i8] }> <{ ptr @alloc_5812f59b5ea3b3def17ff43dfa536d82, [16 x i8] c"P\00\00\00\00\00\00\00\93\01\00\00\09\00\00\00" }>, align 8
@alloc_75fb06c2453febd814e73f5f2e72ae38 = private unnamed_addr constant [199 x i8] c"unsafe precondition(s) violated: hint::unreachable_unchecked must never be reached\0A\0AThis indicates a bug in the program. This Undefined Behavior check is optional, and cannot be relied on for safety.", align 1
@alloc_1be5ea12ba708d9a11b6e93a7d387a75 = private unnamed_addr constant [281 x i8] c"unsafe precondition(s) violated: Layout::from_size_align_unchecked requires that align is a power of 2 and the rounded-up allocation size does not exceed isize::MAX\0A\0AThis indicates a bug in the program. This Undefined Behavior check is optional, and cannot be relied on for safety.", align 1
@alloc_a28e8c8fd5088943a8b5d44af697ff83 = private unnamed_addr constant [279 x i8] c"unsafe precondition(s) violated: slice::from_raw_parts requires the pointer to be aligned and non-null, and the total size of the slice not to exceed `isize::MAX`\0A\0AThis indicates a bug in the program. This Undefined Behavior check is optional, and cannot be relied on for safety.", align 1
@alloc_fad0cd83b7d1858a846a172eb260e593 = private unnamed_addr constant [42 x i8] c"is_aligned_to: align is not a power-of-two", align 1
@alloc_e92e94d0ff530782b571cfd99ec66aef = private unnamed_addr constant <{ ptr, [8 x i8] }> <{ ptr @alloc_fad0cd83b7d1858a846a172eb260e593, [8 x i8] c"*\00\00\00\00\00\00\00" }>, align 8
@alloc_2a4e51eb45533e1138f63e9e1640584b = private unnamed_addr constant [78 x i8] c"/rustc/ed61e7d7e242494fb7057f2657300d9e77bb4fcb/library/core/src/ub_checks.rs\00", align 1
@alloc_f43627efe9d9e10b7544d0f2c13bff14 = private unnamed_addr constant <{ ptr, [16 x i8] }> <{ ptr @alloc_2a4e51eb45533e1138f63e9e1640584b, [16 x i8] c"M\00\00\00\00\00\00\00\94\00\00\006\00\00\00" }>, align 8
@alloc_903e9c430036971d21747e34da9984f0 = private unnamed_addr constant [82 x i8] c"/rustc/ed61e7d7e242494fb7057f2657300d9e77bb4fcb/library/core/src/ptr/const_ptr.rs\00", align 1
@alloc_db58294b8d2ce64ae31d5b63c946c529 = private unnamed_addr constant <{ ptr, [16 x i8] }> <{ ptr @alloc_903e9c430036971d21747e34da9984f0, [16 x i8] c"Q\00\00\00\00\00\00\00^\05\00\00\0D\00\00\00" }>, align 8
@vtable.1 = private constant <{ ptr, [16 x i8], ptr }> <{ ptr @"_ZN4core3ptr42drop_in_place$LT$std..io..error..Error$GT$17haabbf6999498c076E", [16 x i8] c"\08\00\00\00\00\00\00\00\08\00\00\00\00\00\00\00", ptr @"_ZN58_$LT$std..io..error..Error$u20$as$u20$core..fmt..Debug$GT$3fmt17h62ceb23194058131E" }>, align 8, !dbg !24
@alloc_00ae4b301f7fab8ac9617c03fcbd7274 = private unnamed_addr constant [43 x i8] c"called `Result::unwrap()` on an `Err` value", align 1
@vtable.2 = private constant <{ [24 x i8], ptr }> <{ [24 x i8] c"\00\00\00\00\00\00\00\00\01\00\00\00\00\00\00\00\01\00\00\00\00\00\00\00", ptr @"_ZN68_$LT$core..num..error..ParseIntError$u20$as$u20$core..fmt..Debug$GT$3fmt17hd88b295c42b8f464E" }>, align 8, !dbg !148
@_ZN4core7unicode12unicode_data11white_space14WHITESPACE_MAP17h4cf41e25fd3a5318E = external global [256 x i8]
@alloc_7e265bead62de86fc7ffd8ffc9522574 = private unnamed_addr constant [89 x i8] c"/rustc/ed61e7d7e242494fb7057f2657300d9e77bb4fcb/library/core/src/unicode/unicode_data.rs\00", align 1
@alloc_6defd339d793744daa3cb881ef6fc606 = private unnamed_addr constant <{ ptr, [16 x i8] }> <{ ptr @alloc_7e265bead62de86fc7ffd8ffc9522574, [16 x i8] c"X\00\00\00\00\00\00\00\EC\02\00\00\12\00\00\00" }>, align 8
@alloc_f173f0e2cf77b1f431edeee8d5a86d45 = private unnamed_addr constant <{ ptr, [16 x i8] }> <{ ptr @alloc_7e265bead62de86fc7ffd8ffc9522574, [16 x i8] c"X\00\00\00\00\00\00\00\EE\02\00\00\13\00\00\00" }>, align 8
@alloc_6a67276667a84cca95967678678554ae = private unnamed_addr constant [77 x i8] c"/rustc/ed61e7d7e242494fb7057f2657300d9e77bb4fcb/library/alloc/src/vec/mod.rs\00", align 1
@alloc_615f9dd9d0b00cae2582c98c9f3b7009 = private unnamed_addr constant <{ ptr, [16 x i8] }> <{ ptr @alloc_6a67276667a84cca95967678678554ae, [16 x i8] c"L\00\00\00\00\00\00\00\87\06\00\00\12\00\00\00" }>, align 8
@vtable.3 = private constant <{ [24 x i8], ptr }> <{ [24 x i8] c"\00\00\00\00\00\00\00\00\08\00\00\00\00\00\00\00\08\00\00\00\00\00\00\00", ptr @"_ZN42_$LT$$RF$T$u20$as$u20$core..fmt..Debug$GT$3fmt17h66621c8cb3ab1452E" }>, align 8, !dbg !168
@alloc_f62df14955f7d78bca139b0a7668683d = private unnamed_addr constant [13 x i8] c"ParseIntError", align 1
@alloc_a5d866b1768ad3f826bccdb004a1a8ae = private unnamed_addr constant [4 x i8] c"kind", align 1
@alloc_cedf035cf8f768b870628e9a0b4e5f1e = private unnamed_addr constant [81 x i8] c"/rustc/ed61e7d7e242494fb7057f2657300d9e77bb4fcb/library/core/src/alloc/layout.rs\00", align 1
@alloc_73f9238de114e9f561a763f00815f00e = private unnamed_addr constant <{ ptr, [16 x i8] }> <{ ptr @alloc_cedf035cf8f768b870628e9a0b4e5f1e, [16 x i8] c"P\00\00\00\00\00\00\00\E0\00\00\00\12\00\00\00" }>, align 8
@alloc_64a05b32bb1fbe0a6130e3d9a9c48336 = private unnamed_addr constant [79 x i8] c"/rustc/ed61e7d7e242494fb7057f2657300d9e77bb4fcb/library/core/src/ptr/unique.rs\00", align 1
@alloc_0bc17b14e462a5a757e896460b9f7225 = private unnamed_addr constant <{ ptr, [16 x i8] }> <{ ptr @alloc_64a05b32bb1fbe0a6130e3d9a9c48336, [16 x i8] c"N\00\00\00\00\00\00\00X\00\00\00$\00\00\00" }>, align 8
@alloc_2611e2d9ea94ccd79107425d57da7ebe = private unnamed_addr constant [21 x i8] c"(RUST) Enter index: \0A", align 1
@alloc_02aa2a2b13bfc37be163f6bdfdaaaf45 = private unnamed_addr constant <{ ptr, [8 x i8] }> <{ ptr @alloc_2611e2d9ea94ccd79107425d57da7ebe, [8 x i8] c"\15\00\00\00\00\00\00\00" }>, align 8
@alloc_9c209c17a7be20e0e526d047cf6ae3bf = private unnamed_addr constant [11 x i8] c"dynamic.rs\00", align 1
@alloc_4f7c59be0e9e6c2a5aabde5b052d1f9c = private unnamed_addr constant <{ ptr, [16 x i8] }> <{ ptr @alloc_9c209c17a7be20e0e526d047cf6ae3bf, [16 x i8] c"\0A\00\00\00\00\00\00\00\08\00\00\00'\00\00\00" }>, align 8
@alloc_69b581a9cd327bc90a5fd6ab0f582b95 = private unnamed_addr constant <{ ptr, [16 x i8] }> <{ ptr @alloc_9c209c17a7be20e0e526d047cf6ae3bf, [16 x i8] c"\0A\00\00\00\00\00\00\00\09\00\00\00+\00\00\00" }>, align 8
@alloc_3d0e4a3a73847fef13a56cc677ef6ac0 = private unnamed_addr constant <{ ptr, [16 x i8] }> <{ ptr @alloc_9c209c17a7be20e0e526d047cf6ae3bf, [16 x i8] c"\0A\00\00\00\00\00\00\00\0B\00\00\00#\00\00\00" }>, align 8
@alloc_bf02c2bdf03dc767332a97e55cf802d2 = private unnamed_addr constant [4 x i8] c"att[", align 1
@alloc_428053e6434889c8e3f16313e3d2a9ba = private unnamed_addr constant [4 x i8] c"] = ", align 1
@alloc_49a1e817e911805af64bbc7efb390101 = private unnamed_addr constant [1 x i8] c"\0A", align 1
@alloc_9dbc8530e7c00a3264d046557416dcee = private unnamed_addr constant <{ ptr, [8 x i8], ptr, [8 x i8], ptr, [8 x i8] }> <{ ptr @alloc_bf02c2bdf03dc767332a97e55cf802d2, [8 x i8] c"\04\00\00\00\00\00\00\00", ptr @alloc_428053e6434889c8e3f16313e3d2a9ba, [8 x i8] c"\04\00\00\00\00\00\00\00", ptr @alloc_49a1e817e911805af64bbc7efb390101, [8 x i8] c"\01\00\00\00\00\00\00\00" }>, align 8
@__rustc_debug_gdb_scripts_section__ = linkonce_odr unnamed_addr constant [34 x i8] c"\01gdb_load_rust_pretty_printers.py\00", section ".debug_gdb_scripts", align 1

; <core::str::iter::CharIndices as core::iter::traits::double_ended::DoubleEndedIterator>::next_back
; Function Attrs: inlinehint nonlazybind uwtable
define internal { i64, i32 } @"_ZN102_$LT$core..str..iter..CharIndices$u20$as$u20$core..iter..traits..double_ended..DoubleEndedIterator$GT$9next_back17h5f9d691557a7f04dE"(ptr align 8 %self) unnamed_addr #0 !dbg !255 {
start:
  %index.dbg.spill = alloca [8 x i8], align 8
  %end.dbg.spill = alloca [8 x i8], align 8
  %self.dbg.spill8 = alloca [8 x i8], align 8
  %_25.dbg.spill = alloca [8 x i8], align 8
  %_24.dbg.spill = alloca [8 x i8], align 8
  %x.dbg.spill6 = alloca [4 x i8], align 4
  %x.dbg.spill = alloca [4 x i8], align 4
  %self.dbg.spill4 = alloca [8 x i8], align 8
  %f.dbg.spill = alloca [0 x i8], align 1
  %self.dbg.spill = alloca [8 x i8], align 8
  %f3 = alloca [8 x i8], align 8
  %f = alloca [8 x i8], align 8
  %self2 = alloca [8 x i8], align 4
  %_5 = alloca [8 x i8], align 8
  %_4 = alloca [8 x i8], align 8
  %self1 = alloca [4 x i8], align 4
  %_0 = alloca [16 x i8], align 8
  store ptr %self, ptr %self.dbg.spill, align 8
    #dbg_declare(ptr %self.dbg.spill, !308, !DIExpression(), !309)
    #dbg_declare(ptr %self1, !310, !DIExpression(), !343)
    #dbg_declare(ptr %self2, !345, !DIExpression(), !373)
    #dbg_declare(ptr %f, !340, !DIExpression(DW_OP_LLVM_fragment, 0, 64), !382)
    #dbg_declare(ptr %f3, !340, !DIExpression(DW_OP_LLVM_fragment, 64, 64), !382)
    #dbg_declare(ptr %f.dbg.spill, !370, !DIExpression(), !383)
  store ptr %self, ptr %self.dbg.spill4, align 8, !dbg !384
    #dbg_declare(ptr %self.dbg.spill4, !380, !DIExpression(), !385)
; call core::str::validations::next_code_point_reverse
  %0 = call { i32, i32 } @_ZN4core3str11validations23next_code_point_reverse17h615b9ae40e33c2eaE(ptr align 8 %self), !dbg !386
  %1 = extractvalue { i32, i32 } %0, 0, !dbg !386
  %2 = extractvalue { i32, i32 } %0, 1, !dbg !386
  store i32 %1, ptr %self2, align 4, !dbg !386
  %3 = getelementptr inbounds i8, ptr %self2, i64 4, !dbg !386
  store i32 %2, ptr %3, align 4, !dbg !386
  %4 = load i32, ptr %self2, align 4, !dbg !387
  %5 = getelementptr inbounds i8, ptr %self2, i64 4, !dbg !387
  %6 = load i32, ptr %5, align 4, !dbg !387
  %_8 = zext i32 %4 to i64, !dbg !387
  %7 = trunc nuw i64 %_8 to i1, !dbg !388
  br i1 %7, label %bb4, label %bb3, !dbg !388

bb4:                                              ; preds = %start
  %8 = getelementptr inbounds i8, ptr %self2, i64 4, !dbg !389
  %x = load i32, ptr %8, align 4, !dbg !389
  store i32 %x, ptr %x.dbg.spill, align 4, !dbg !389
    #dbg_declare(ptr %x.dbg.spill, !371, !DIExpression(), !390)
    #dbg_declare(ptr %x.dbg.spill, !391, !DIExpression(), !396)
    #dbg_declare(ptr %x.dbg.spill, !398, !DIExpression(), !407)
    #dbg_declare(ptr %x.dbg.spill, !409, !DIExpression(), !435)
  br label %bb5, !dbg !437

bb3:                                              ; preds = %start
  store i32 1114112, ptr %self1, align 4, !dbg !440
  %9 = getelementptr inbounds i8, ptr %self, i64 16, !dbg !441
  store ptr %9, ptr %_4, align 8, !dbg !441
  store ptr %self, ptr %_5, align 8, !dbg !441
  %10 = load ptr, ptr %_4, align 8, !dbg !441
  store ptr %10, ptr %f, align 8, !dbg !441
  %11 = load ptr, ptr %_5, align 8, !dbg !441
  store ptr %11, ptr %f3, align 8, !dbg !441
  %12 = load i64, ptr @anon.17a64ccdb0dd3b2223636ea1105fd72b.0, align 8, !dbg !442
  %13 = load i32, ptr getelementptr inbounds (i8, ptr @anon.17a64ccdb0dd3b2223636ea1105fd72b.0, i64 8), align 8, !dbg !442
  store i64 %12, ptr %_0, align 8, !dbg !442
  %14 = getelementptr inbounds i8, ptr %_0, i64 8, !dbg !442
  store i32 %13, ptr %14, align 8, !dbg !442
  br label %bb7, !dbg !443

bb7:                                              ; preds = %bb6, %bb3
  %15 = load i64, ptr %_0, align 8, !dbg !444
  %16 = getelementptr inbounds i8, ptr %_0, i64 8, !dbg !444
  %17 = load i32, ptr %16, align 8, !dbg !444
  %18 = insertvalue { i64, i32 } poison, i64 %15, 0, !dbg !444
  %19 = insertvalue { i64, i32 } %18, i32 %17, 1, !dbg !444
  ret { i64, i32 } %19, !dbg !444

bb5:                                              ; preds = %bb4
; call core::char::convert::from_u32_unchecked::precondition_check
  call void @_ZN4core4char7convert18from_u32_unchecked18precondition_check17h8be9a9896a02b6fcE(i32 %x, ptr align 8 @alloc_2925e2a6c2ac77848dfa2a589f28dc35) #14, !dbg !445
  br label %bb6, !dbg !445

bb6:                                              ; preds = %bb5
  store i32 %x, ptr %self1, align 4, !dbg !446
  %20 = getelementptr inbounds i8, ptr %self, i64 16, !dbg !441
  store ptr %20, ptr %_4, align 8, !dbg !441
  store ptr %self, ptr %_5, align 8, !dbg !441
  %21 = load ptr, ptr %_4, align 8, !dbg !441
  store ptr %21, ptr %f, align 8, !dbg !441
  %22 = load ptr, ptr %_5, align 8, !dbg !441
  store ptr %22, ptr %f3, align 8, !dbg !441
  %x5 = load i32, ptr %self1, align 4, !dbg !447
  store i32 %x5, ptr %x.dbg.spill6, align 4, !dbg !447
    #dbg_declare(ptr %x.dbg.spill6, !341, !DIExpression(), !448)
    #dbg_declare(ptr %x.dbg.spill6, !449, !DIExpression(), !458)
  %_24 = load ptr, ptr %_4, align 8, !dbg !461
  store ptr %_24, ptr %_24.dbg.spill, align 8, !dbg !461
    #dbg_declare(ptr %_24.dbg.spill, !454, !DIExpression(DW_OP_deref), !462)
  %_25 = load ptr, ptr %_5, align 8, !dbg !461
  store ptr %_25, ptr %_25.dbg.spill, align 8, !dbg !461
    #dbg_declare(ptr %_25.dbg.spill, !455, !DIExpression(DW_OP_deref), !462)
  %23 = load ptr, ptr %_4, align 8, !dbg !463
  %_16 = load i64, ptr %23, align 8, !dbg !463
  %self7 = load ptr, ptr %_5, align 8, !dbg !464
  store ptr %self7, ptr %self.dbg.spill8, align 8, !dbg !464
    #dbg_declare(ptr %self.dbg.spill8, !465, !DIExpression(), !476)
  %24 = load ptr, ptr %_5, align 8, !dbg !478
  %25 = getelementptr inbounds i8, ptr %24, i64 8, !dbg !478
  %_22 = load ptr, ptr %25, align 8, !dbg !478
  store ptr %_22, ptr %end.dbg.spill, align 8, !dbg !479
    #dbg_declare(ptr %end.dbg.spill, !474, !DIExpression(), !480)
  %26 = load ptr, ptr %_5, align 8, !dbg !481
  %_23 = load ptr, ptr %26, align 8, !dbg !481
; call core::ptr::non_null::NonNull<T>::offset_from_unsigned
  %_17 = call i64 @"_ZN4core3ptr8non_null16NonNull$LT$T$GT$20offset_from_unsigned17hda8e6fe9f99a2b63E"(ptr %_22, ptr %_23), !dbg !482
  %index = add i64 %_16, %_17, !dbg !463
  store i64 %index, ptr %index.dbg.spill, align 8, !dbg !463
    #dbg_declare(ptr %index.dbg.spill, !456, !DIExpression(), !483)
  store i64 %index, ptr %_0, align 8, !dbg !484
  %27 = getelementptr inbounds i8, ptr %_0, i64 8, !dbg !484
  store i32 %x5, ptr %27, align 8, !dbg !484
  br label %bb7, !dbg !485

bb2:                                              ; No predecessors!
  unreachable, !dbg !486
}

; <core::str::pattern::MultiCharEqSearcher<C> as core::str::pattern::ReverseSearcher>::next_back
; Function Attrs: inlinehint nonlazybind uwtable
define internal void @"_ZN104_$LT$core..str..pattern..MultiCharEqSearcher$LT$C$GT$$u20$as$u20$core..str..pattern..ReverseSearcher$GT$9next_back17h6015a9a94f94e13dE"(ptr sret([24 x i8]) align 8 %_0, ptr align 8 %self) unnamed_addr #0 !dbg !489 {
start:
  %char_len.dbg.spill = alloca [8 x i8], align 8
  %len.dbg.spill = alloca [8 x i8], align 8
  %end.dbg.spill3 = alloca [8 x i8], align 8
  %self.dbg.spill2 = alloca [8 x i8], align 8
  %c.dbg.spill = alloca [4 x i8], align 4
  %i.dbg.spill = alloca [8 x i8], align 8
  %pre_len.dbg.spill = alloca [8 x i8], align 8
  %end.dbg.spill = alloca [8 x i8], align 8
  %self.dbg.spill1 = alloca [8 x i8], align 8
  %s.dbg.spill = alloca [8 x i8], align 8
  %self.dbg.spill = alloca [8 x i8], align 8
  %_5 = alloca [16 x i8], align 8
  store ptr %self, ptr %self.dbg.spill, align 8
    #dbg_declare(ptr %self.dbg.spill, !525, !DIExpression(), !537)
  %s = getelementptr inbounds i8, ptr %self, i64 16, !dbg !538
  store ptr %s, ptr %s.dbg.spill, align 8, !dbg !538
    #dbg_declare(ptr %s.dbg.spill, !526, !DIExpression(), !539)
  store ptr %s, ptr %self.dbg.spill1, align 8, !dbg !540
    #dbg_declare(ptr %self.dbg.spill1, !541, !DIExpression(), !552)
  %0 = getelementptr inbounds i8, ptr %s, i64 8, !dbg !554
  %_19 = load ptr, ptr %0, align 8, !dbg !554
  store ptr %_19, ptr %end.dbg.spill, align 8, !dbg !555
    #dbg_declare(ptr %end.dbg.spill, !546, !DIExpression(), !556)
  %_20 = load ptr, ptr %s, align 8, !dbg !557
; call core::ptr::non_null::NonNull<T>::offset_from_unsigned
  %pre_len = call i64 @"_ZN4core3ptr8non_null16NonNull$LT$T$GT$20offset_from_unsigned17hda8e6fe9f99a2b63E"(ptr %_19, ptr %_20), !dbg !558
  store i64 %pre_len, ptr %pre_len.dbg.spill, align 8, !dbg !558
    #dbg_declare(ptr %pre_len.dbg.spill, !528, !DIExpression(), !559)
; call <core::str::iter::CharIndices as core::iter::traits::double_ended::DoubleEndedIterator>::next_back
  %1 = call { i64, i32 } @"_ZN102_$LT$core..str..iter..CharIndices$u20$as$u20$core..iter..traits..double_ended..DoubleEndedIterator$GT$9next_back17h5f9d691557a7f04dE"(ptr align 8 %s), !dbg !560
  %2 = extractvalue { i64, i32 } %1, 0, !dbg !560
  %3 = extractvalue { i64, i32 } %1, 1, !dbg !560
  store i64 %2, ptr %_5, align 8, !dbg !560
  %4 = getelementptr inbounds i8, ptr %_5, i64 8, !dbg !560
  store i32 %3, ptr %4, align 8, !dbg !560
  %5 = load i64, ptr %_5, align 8, !dbg !561
  %6 = getelementptr inbounds i8, ptr %_5, i64 8, !dbg !561
  %7 = load i32, ptr %6, align 8, !dbg !561
  %8 = icmp eq i32 %7, 1114112, !dbg !561
  %_6 = select i1 %8, i64 0, i64 1, !dbg !561
  %9 = trunc nuw i64 %_6 to i1, !dbg !562
  br i1 %9, label %bb2, label %bb6, !dbg !562

bb2:                                              ; preds = %start
  %i = load i64, ptr %_5, align 8, !dbg !563
  store i64 %i, ptr %i.dbg.spill, align 8, !dbg !563
    #dbg_declare(ptr %i.dbg.spill, !530, !DIExpression(), !563)
  %10 = getelementptr inbounds i8, ptr %_5, i64 8, !dbg !564
  %c = load i32, ptr %10, align 8, !dbg !564
  store i32 %c, ptr %c.dbg.spill, align 4, !dbg !564
    #dbg_declare(ptr %c.dbg.spill, !532, !DIExpression(), !564)
  store ptr %s, ptr %self.dbg.spill2, align 8, !dbg !565
    #dbg_declare(ptr %self.dbg.spill2, !541, !DIExpression(), !566)
  %11 = getelementptr inbounds i8, ptr %s, i64 8, !dbg !568
  %_24 = load ptr, ptr %11, align 8, !dbg !568
  store ptr %_24, ptr %end.dbg.spill3, align 8, !dbg !569
    #dbg_declare(ptr %end.dbg.spill3, !550, !DIExpression(), !570)
  %_25 = load ptr, ptr %s, align 8, !dbg !571
; call core::ptr::non_null::NonNull<T>::offset_from_unsigned
  %len = call i64 @"_ZN4core3ptr8non_null16NonNull$LT$T$GT$20offset_from_unsigned17hda8e6fe9f99a2b63E"(ptr %_24, ptr %_25), !dbg !572
  store i64 %len, ptr %len.dbg.spill, align 8, !dbg !572
    #dbg_declare(ptr %len.dbg.spill, !533, !DIExpression(), !573)
  %char_len = sub i64 %pre_len, %len, !dbg !574
  store i64 %char_len, ptr %char_len.dbg.spill, align 8, !dbg !574
    #dbg_declare(ptr %char_len.dbg.spill, !535, !DIExpression(), !575)
  %_13 = getelementptr inbounds i8, ptr %self, i64 40, !dbg !576
; call <F as core::str::pattern::MultiCharEq>::matches
  %_12 = call zeroext i1 @"_ZN53_$LT$F$u20$as$u20$core..str..pattern..MultiCharEq$GT$7matches17h39b8e1c983bb26a6E"(ptr align 1 %_13, i32 %c), !dbg !577
  br i1 %_12, label %bb4, label %bb5, !dbg !576

bb6:                                              ; preds = %start
  store i64 2, ptr %_0, align 8, !dbg !578
  br label %bb8, !dbg !579

bb5:                                              ; preds = %bb2
  %_15 = add i64 %i, %char_len, !dbg !580
  %12 = getelementptr inbounds i8, ptr %_0, i64 8, !dbg !581
  store i64 %i, ptr %12, align 8, !dbg !581
  %13 = getelementptr inbounds i8, ptr %_0, i64 16, !dbg !581
  store i64 %_15, ptr %13, align 8, !dbg !581
  store i64 1, ptr %_0, align 8, !dbg !581
  br label %bb7, !dbg !582

bb4:                                              ; preds = %bb2
  %_14 = add i64 %i, %char_len, !dbg !583
  %14 = getelementptr inbounds i8, ptr %_0, i64 8, !dbg !584
  store i64 %i, ptr %14, align 8, !dbg !584
  %15 = getelementptr inbounds i8, ptr %_0, i64 16, !dbg !584
  store i64 %_14, ptr %15, align 8, !dbg !584
  store i64 0, ptr %_0, align 8, !dbg !584
  br label %bb7, !dbg !585

bb7:                                              ; preds = %bb4, %bb5
  br label %bb8, !dbg !579

bb8:                                              ; preds = %bb6, %bb7
  ret void, !dbg !579

bb11:                                             ; No predecessors!
  unreachable, !dbg !586
}

; <core::slice::iter::Iter<T> as core::iter::traits::double_ended::DoubleEndedIterator>::next_back
; Function Attrs: inlinehint nonlazybind uwtable
define internal align 1 ptr @"_ZN106_$LT$core..slice..iter..Iter$LT$T$GT$$u20$as$u20$core..iter..traits..double_ended..DoubleEndedIterator$GT$9next_back17hb631222b24b96e10E"(ptr align 8 %self) unnamed_addr #0 !dbg !587 {
start:
  %self.dbg.spill8 = alloca [8 x i8], align 8
  %self.dbg.spill7 = alloca [8 x i8], align 8
  %end.dbg.spill = alloca [8 x i8], align 8
  %self.dbg.spill5 = alloca [8 x i8], align 8
  %other.dbg.spill = alloca [8 x i8], align 8
  %self.dbg.spill3 = alloca [8 x i8], align 8
  %count.dbg.spill2 = alloca [8 x i8], align 8
  %self.dbg.spill1 = alloca [8 x i8], align 8
  %count.dbg.spill = alloca [8 x i8], align 8
  %offset.dbg.spill = alloca [8 x i8], align 8
  %self.dbg.spill = alloca [8 x i8], align 8
  %_21 = alloca [8 x i8], align 8
  %_14 = alloca [8 x i8], align 8
  %end = alloca [8 x i8], align 8
  %_2 = alloca [1 x i8], align 1
  %_0 = alloca [8 x i8], align 8
  store ptr %self, ptr %self.dbg.spill, align 8
    #dbg_declare(ptr %self.dbg.spill, !604, !DIExpression(), !609)
    #dbg_declare(ptr %self.dbg.spill, !610, !DIExpression(), !616)
    #dbg_declare(ptr %self.dbg.spill, !618, !DIExpression(), !631)
    #dbg_declare(ptr %end, !607, !DIExpression(), !633)
  store i64 1, ptr %offset.dbg.spill, align 8, !dbg !634
    #dbg_declare(ptr %offset.dbg.spill, !624, !DIExpression(), !634)
  store i64 1, ptr %count.dbg.spill, align 8, !dbg !635
    #dbg_declare(ptr %count.dbg.spill, !643, !DIExpression(), !635)
  store i64 1, ptr %self.dbg.spill1, align 8, !dbg !645
    #dbg_declare(ptr %self.dbg.spill1, !653, !DIExpression(), !645)
  store i64 -1, ptr %count.dbg.spill2, align 8, !dbg !655
    #dbg_declare(ptr %count.dbg.spill2, !662, !DIExpression(), !655)
  br label %bb2, !dbg !664

bb2:                                              ; preds = %start
  %0 = getelementptr inbounds i8, ptr %self, i64 8, !dbg !665
  %_6 = load ptr, ptr %0, align 8, !dbg !665
  store ptr %_6, ptr %end, align 8, !dbg !666
  store ptr %self, ptr %self.dbg.spill3, align 8, !dbg !667
    #dbg_declare(ptr %self.dbg.spill3, !668, !DIExpression(), !676)
  store ptr %end, ptr %other.dbg.spill, align 8, !dbg !677
    #dbg_declare(ptr %other.dbg.spill, !675, !DIExpression(), !678)
  %_11 = load ptr, ptr %self, align 8, !dbg !679
  %_12 = load ptr, ptr %end, align 8, !dbg !680
  %1 = icmp eq ptr %_11, %_12, !dbg !679
  %2 = zext i1 %1 to i8, !dbg !679
  store i8 %2, ptr %_2, align 1, !dbg !679
  br label %bb3, !dbg !687

bb3:                                              ; preds = %bb2
  %3 = load i8, ptr %_2, align 1, !dbg !688
  %4 = trunc nuw i8 %3 to i1, !dbg !688
  br i1 %4, label %bb4, label %bb5, !dbg !688

bb5:                                              ; preds = %bb3
  br label %bb9, !dbg !689

bb4:                                              ; preds = %bb3
  store ptr null, ptr %_0, align 8, !dbg !690
  br label %bb6, !dbg !691

bb9:                                              ; preds = %bb5
  %self4 = getelementptr inbounds i8, ptr %self, i64 8, !dbg !692
  store ptr %self4, ptr %self.dbg.spill5, align 8, !dbg !692
    #dbg_declare(ptr %self.dbg.spill5, !693, !DIExpression(), !705)
  store ptr %self4, ptr %end.dbg.spill, align 8, !dbg !707
    #dbg_declare(ptr %end.dbg.spill, !628, !DIExpression(), !708)
  %self6 = load ptr, ptr %self4, align 8, !dbg !709
  store ptr %self6, ptr %self.dbg.spill7, align 8, !dbg !709
    #dbg_declare(ptr %self.dbg.spill7, !642, !DIExpression(), !710)
    #dbg_declare(ptr %self.dbg.spill7, !661, !DIExpression(), !711)
  br label %bb12, !dbg !712

bb12:                                             ; preds = %bb9
  br label %bb13, !dbg !713

bb13:                                             ; preds = %bb12
; call core::num::<impl isize>::unchecked_neg::precondition_check
  call void @"_ZN4core3num23_$LT$impl$u20$isize$GT$13unchecked_neg18precondition_check17h9513856e1ce144c0E"(i64 1, ptr align 8 @alloc_9c07a1c5fd625bcfd1904a658efdc61b) #14, !dbg !715
  br label %bb14, !dbg !715

bb14:                                             ; preds = %bb13
  %_25 = getelementptr inbounds i8, ptr %self6, i64 -1, !dbg !716
  store ptr %_25, ptr %_21, align 8, !dbg !717
  br label %bb10, !dbg !718

bb10:                                             ; preds = %bb14
  %5 = load ptr, ptr %_21, align 8, !dbg !719
  store ptr %5, ptr %self4, align 8, !dbg !719
  %6 = load ptr, ptr %self4, align 8, !dbg !720
  store ptr %6, ptr %_14, align 8, !dbg !720
  br label %bb7, !dbg !721

bb7:                                              ; preds = %bb10
  store ptr %_14, ptr %self.dbg.spill8, align 8, !dbg !722
    #dbg_declare(ptr %self.dbg.spill8, !723, !DIExpression(), !729)
  %_28 = load ptr, ptr %_14, align 8, !dbg !731
  store ptr %_28, ptr %_0, align 8, !dbg !732
  br label %bb6, !dbg !691

bb6:                                              ; preds = %bb4, %bb7
  %7 = load ptr, ptr %_0, align 8, !dbg !733
  ret ptr %7, !dbg !733

bb1:                                              ; No predecessors!
  unreachable

bb8:                                              ; No predecessors!
  unreachable

bb11:                                             ; No predecessors!
  unreachable
}

; <core::str::pattern::CharPredicateSearcher<F> as core::str::pattern::ReverseSearcher>::next_reject_back
; Function Attrs: inlinehint nonlazybind uwtable
define internal void @"_ZN106_$LT$core..str..pattern..CharPredicateSearcher$LT$F$GT$$u20$as$u20$core..str..pattern..ReverseSearcher$GT$16next_reject_back17h043cafcf5d56a936E"(ptr sret([24 x i8]) align 8 %_0, ptr align 8 %self) unnamed_addr #0 !dbg !734 {
start:
  %self.dbg.spill = alloca [8 x i8], align 8
  store ptr %self, ptr %self.dbg.spill, align 8
    #dbg_declare(ptr %self.dbg.spill, !762, !DIExpression(), !763)
; call core::str::pattern::ReverseSearcher::next_reject_back
  call void @_ZN4core3str7pattern15ReverseSearcher16next_reject_back17hfe3f2bdd53f8eed8E(ptr sret([24 x i8]) align 8 %_0, ptr align 8 %self), !dbg !764
  ret void, !dbg !765
}

; std::io::error::repr_bitpacked::decode_repr
; Function Attrs: inlinehint nonlazybind uwtable
define internal void @_ZN3std2io5error14repr_bitpacked11decode_repr17h036d8aff62719ca7E(ptr sret([16 x i8]) align 8 %_0, ptr %ptr) unnamed_addr #0 personality ptr @rust_eh_personality !dbg !766 {
start:
  %custom.dbg.spill = alloca [8 x i8], align 8
  %self.dbg.spill7 = alloca [8 x i8], align 8
  %meta.dbg.spill = alloca [8 x i8], align 8
  %self.dbg.spill6 = alloca [8 x i8], align 8
  %0 = alloca [8 x i8], align 8
  %self.dbg.spill5 = alloca [8 x i8], align 8
  %self.dbg.spill4 = alloca [8 x i8], align 8
  %kind.dbg.spill = alloca [1 x i8], align 1
  %f.dbg.spill = alloca [8 x i8], align 8
  %1 = alloca [16 x i8], align 8
  %kind_bits.dbg.spill = alloca [4 x i8], align 4
  %code.dbg.spill = alloca [4 x i8], align 4
  %self.dbg.spill3 = alloca [8 x i8], align 8
  %count.dbg.spill2 = alloca [8 x i8], align 8
  %self.dbg.spill = alloca [8 x i8], align 8
  %count.dbg.spill1 = alloca [8 x i8], align 8
  %count.dbg.spill = alloca [8 x i8], align 8
  %make_custom.dbg.spill = alloca [0 x i8], align 1
  %ptr.dbg.spill = alloca [8 x i8], align 8
  %_21 = alloca [1 x i8], align 1
  %self = alloca [1 x i8], align 1
  %bits = alloca [8 x i8], align 8
  store ptr %ptr, ptr %ptr.dbg.spill, align 8
    #dbg_declare(ptr %ptr.dbg.spill, !774, !DIExpression(), !789)
    #dbg_declare(ptr %ptr.dbg.spill, !790, !DIExpression(), !797)
    #dbg_declare(ptr %ptr.dbg.spill, !790, !DIExpression(), !799)
    #dbg_declare(ptr %ptr.dbg.spill, !801, !DIExpression(), !815)
    #dbg_declare(ptr %make_custom.dbg.spill, !775, !DIExpression(), !817)
    #dbg_declare(ptr %bits, !776, !DIExpression(), !818)
    #dbg_declare(ptr %self, !819, !DIExpression(), !847)
  store i64 1, ptr %count.dbg.spill, align 8, !dbg !849
    #dbg_declare(ptr %count.dbg.spill, !855, !DIExpression(), !849)
  store i64 1, ptr %count.dbg.spill1, align 8, !dbg !857
    #dbg_declare(ptr %count.dbg.spill1, !863, !DIExpression(), !857)
  store i64 1, ptr %self.dbg.spill, align 8, !dbg !865
    #dbg_declare(ptr %self.dbg.spill, !870, !DIExpression(), !865)
  store i64 -1, ptr %count.dbg.spill2, align 8, !dbg !872
    #dbg_declare(ptr %count.dbg.spill2, !878, !DIExpression(), !872)
  store i8 1, ptr %_21, align 1, !dbg !880
  store ptr %ptr, ptr %self.dbg.spill3, align 8, !dbg !881
    #dbg_declare(ptr %self.dbg.spill3, !882, !DIExpression(), !887)
    #dbg_declare(ptr %self.dbg.spill3, !854, !DIExpression(), !889)
    #dbg_declare(ptr %self.dbg.spill3, !890, !DIExpression(), !897)
  store ptr %ptr, ptr %bits, align 8, !dbg !899
  %2 = load i64, ptr %bits, align 8, !dbg !900
  %_5 = and i64 %2, 3, !dbg !900
  switch i64 %_5, label %bb1 [
    i64 2, label %bb5
    i64 3, label %bb4
    i64 0, label %bb3
    i64 1, label %bb2
  ], !dbg !901

bb1:                                              ; preds = %start
; invoke core::panicking::panic
  invoke void @_ZN4core9panicking5panic17ha264d2bb233f2b69E(ptr align 1 @alloc_a500d906b91607583596fa15e63c2ada, i64 40, ptr align 8 @alloc_df38229897fa3f90ed81b968e38fcae7) #15
          to label %unreachable unwind label %cleanup, !dbg !902

bb5:                                              ; preds = %start
  %_8 = load i64, ptr %bits, align 8, !dbg !903
  %_7 = ashr i64 %_8, 32, !dbg !904
  %code = trunc i64 %_7 to i32, !dbg !904
  store i32 %code, ptr %code.dbg.spill, align 4, !dbg !904
    #dbg_declare(ptr %code.dbg.spill, !778, !DIExpression(), !905)
  %3 = getelementptr inbounds i8, ptr %_0, i64 4, !dbg !906
  store i32 %code, ptr %3, align 4, !dbg !906
  store i8 0, ptr %_0, align 8, !dbg !906
  br label %bb10, !dbg !907

bb4:                                              ; preds = %start
  %4 = load i64, ptr %bits, align 8, !dbg !908
  %_10 = lshr i64 %4, 32, !dbg !908
  %kind_bits = trunc i64 %_10 to i32, !dbg !908
  store i32 %kind_bits, ptr %kind_bits.dbg.spill, align 4, !dbg !908
    #dbg_declare(ptr %kind_bits.dbg.spill, !780, !DIExpression(), !909)
; invoke std::io::error::repr_bitpacked::kind_from_prim
  %5 = invoke i8 @_ZN3std2io5error14repr_bitpacked14kind_from_prim17h03407749302bbfd7E(i32 %kind_bits)
          to label %bb6 unwind label %cleanup, !dbg !910

bb3:                                              ; preds = %start
  store ptr %ptr, ptr %self.dbg.spill4, align 8, !dbg !911
    #dbg_declare(ptr %self.dbg.spill4, !912, !DIExpression(), !919)
  %6 = getelementptr inbounds i8, ptr %_0, i64 8, !dbg !921
  store ptr %ptr, ptr %6, align 8, !dbg !921
  store i8 2, ptr %_0, align 8, !dbg !921
  br label %bb10, !dbg !907

bb2:                                              ; preds = %start
  store ptr %ptr, ptr %self.dbg.spill5, align 8, !dbg !922
    #dbg_declare(ptr %self.dbg.spill5, !862, !DIExpression(), !923)
    #dbg_declare(ptr %self.dbg.spill5, !877, !DIExpression(), !924)
  %7 = getelementptr i8, ptr %ptr, i64 -1, !dbg !925
  store ptr %7, ptr %0, align 8, !dbg !925
  %_35 = load ptr, ptr %0, align 8, !dbg !925
  store ptr %_35, ptr %self.dbg.spill6, align 8, !dbg !925
    #dbg_declare(ptr %self.dbg.spill6, !926, !DIExpression(), !934)
  store ptr %ptr, ptr %meta.dbg.spill, align 8, !dbg !936
    #dbg_declare(ptr %meta.dbg.spill, !931, !DIExpression(), !937)
    #dbg_declare(ptr %meta.dbg.spill, !938, !DIExpression(), !945)
  store ptr %_35, ptr %self.dbg.spill7, align 8, !dbg !947
    #dbg_declare(ptr %self.dbg.spill7, !948, !DIExpression(), !955)
  store ptr %_35, ptr %custom.dbg.spill, align 8, !dbg !957
    #dbg_declare(ptr %custom.dbg.spill, !784, !DIExpression(), !958)
  store i8 0, ptr %_21, align 1, !dbg !959
; invoke <std::io::error::repr_bitpacked::Repr as core::ops::drop::Drop>::drop::{{closure}}
  %_17 = invoke align 8 ptr @"_ZN78_$LT$std..io..error..repr_bitpacked..Repr$u20$as$u20$core..ops..drop..Drop$GT$4drop28_$u7b$$u7b$closure$u7d$$u7d$17ha3614bb928e24746E"(ptr %_35)
          to label %bb7 unwind label %cleanup, !dbg !959

bb10:                                             ; preds = %bb3, %bb15, %bb5
  br label %bb8, !dbg !907

bb12:                                             ; preds = %cleanup
  %8 = load i8, ptr %_21, align 1, !dbg !907
  %9 = trunc nuw i8 %8 to i1, !dbg !907
  br i1 %9, label %bb11, label %bb9, !dbg !907

cleanup:                                          ; preds = %bb1, %bb2, %bb4
  %10 = landingpad { ptr, i32 }
          cleanup
  %11 = extractvalue { ptr, i32 } %10, 0
  %12 = extractvalue { ptr, i32 } %10, 1
  store ptr %11, ptr %1, align 8
  %13 = getelementptr inbounds i8, ptr %1, i64 8
  store i32 %12, ptr %13, align 8
  br label %bb12

bb6:                                              ; preds = %bb4
  store i8 %5, ptr %self, align 1, !dbg !910
  store ptr %bits, ptr %f.dbg.spill, align 8, !dbg !960
    #dbg_declare(ptr %f.dbg.spill, !844, !DIExpression(), !961)
    #dbg_declare(ptr %f.dbg.spill, !962, !DIExpression(DW_OP_deref), !1039)
  %14 = load i8, ptr %self, align 1, !dbg !1041
  %15 = icmp eq i8 %14, 42, !dbg !1041
  %_23 = select i1 %15, i64 0, i64 1, !dbg !1041
  %16 = trunc nuw i64 %_23 to i1, !dbg !1042
  br i1 %16, label %bb15, label %bb14, !dbg !1042

bb15:                                             ; preds = %bb6
  %kind = load i8, ptr %self, align 1, !dbg !1043
  store i8 %kind, ptr %kind.dbg.spill, align 1, !dbg !1043
    #dbg_declare(ptr %kind.dbg.spill, !782, !DIExpression(), !1044)
    #dbg_declare(ptr %kind.dbg.spill, !845, !DIExpression(), !1045)
  %17 = getelementptr inbounds i8, ptr %_0, i64 1, !dbg !1046
  store i8 %kind, ptr %17, align 1, !dbg !1046
  store i8 1, ptr %_0, align 8, !dbg !1046
  br label %bb10, !dbg !907

bb14:                                             ; preds = %bb6
; call core::hint::unreachable_unchecked::precondition_check
  call void @_ZN4core4hint21unreachable_unchecked18precondition_check17h506f38bd5a2702beE(ptr align 8 @alloc_c46812334728ce009f8cea92fbb7a3bb) #14, !dbg !1047
  br label %bb13, !dbg !1047

bb13:                                             ; preds = %bb14
  unreachable, !dbg !1055

bb8:                                              ; preds = %bb7, %bb10
  ret void, !dbg !1057

bb7:                                              ; preds = %bb2
  %18 = getelementptr inbounds i8, ptr %_0, i64 8, !dbg !1058
  store ptr %_17, ptr %18, align 8, !dbg !1058
  store i8 3, ptr %_0, align 8, !dbg !1058
  br label %bb8, !dbg !907

unreachable:                                      ; preds = %bb1
  unreachable

bb9:                                              ; preds = %bb11, %bb12
  %19 = load ptr, ptr %1, align 8, !dbg !1059
  %20 = getelementptr inbounds i8, ptr %1, i64 8, !dbg !1059
  %21 = load i32, ptr %20, align 8, !dbg !1059
  %22 = insertvalue { ptr, i32 } poison, ptr %19, 0, !dbg !1059
  %23 = insertvalue { ptr, i32 } %22, i32 %21, 1, !dbg !1059
  resume { ptr, i32 } %23, !dbg !1059

bb11:                                             ; preds = %bb12
  br label %bb9, !dbg !907
}

; std::io::error::repr_bitpacked::kind_from_prim
; Function Attrs: inlinehint nonlazybind uwtable
define internal i8 @_ZN3std2io5error14repr_bitpacked14kind_from_prim17h03407749302bbfd7E(i32 %0) unnamed_addr #0 !dbg !1060 {
start:
  %v.dbg.spill41 = alloca [8 x i8], align 8
  %v.dbg.spill40 = alloca [8 x i8], align 8
  %v.dbg.spill39 = alloca [8 x i8], align 8
  %v.dbg.spill38 = alloca [8 x i8], align 8
  %v.dbg.spill37 = alloca [8 x i8], align 8
  %v.dbg.spill36 = alloca [8 x i8], align 8
  %v.dbg.spill35 = alloca [8 x i8], align 8
  %v.dbg.spill34 = alloca [8 x i8], align 8
  %v.dbg.spill33 = alloca [8 x i8], align 8
  %v.dbg.spill32 = alloca [8 x i8], align 8
  %v.dbg.spill31 = alloca [8 x i8], align 8
  %v.dbg.spill30 = alloca [8 x i8], align 8
  %v.dbg.spill29 = alloca [8 x i8], align 8
  %v.dbg.spill28 = alloca [8 x i8], align 8
  %v.dbg.spill27 = alloca [8 x i8], align 8
  %v.dbg.spill26 = alloca [8 x i8], align 8
  %v.dbg.spill25 = alloca [8 x i8], align 8
  %v.dbg.spill24 = alloca [8 x i8], align 8
  %v.dbg.spill23 = alloca [8 x i8], align 8
  %v.dbg.spill22 = alloca [8 x i8], align 8
  %v.dbg.spill21 = alloca [8 x i8], align 8
  %v.dbg.spill20 = alloca [8 x i8], align 8
  %v.dbg.spill19 = alloca [8 x i8], align 8
  %v.dbg.spill18 = alloca [8 x i8], align 8
  %v.dbg.spill17 = alloca [8 x i8], align 8
  %v.dbg.spill16 = alloca [8 x i8], align 8
  %v.dbg.spill15 = alloca [8 x i8], align 8
  %v.dbg.spill14 = alloca [8 x i8], align 8
  %v.dbg.spill13 = alloca [8 x i8], align 8
  %v.dbg.spill12 = alloca [8 x i8], align 8
  %v.dbg.spill11 = alloca [8 x i8], align 8
  %v.dbg.spill10 = alloca [8 x i8], align 8
  %v.dbg.spill9 = alloca [8 x i8], align 8
  %v.dbg.spill8 = alloca [8 x i8], align 8
  %v.dbg.spill7 = alloca [8 x i8], align 8
  %v.dbg.spill6 = alloca [8 x i8], align 8
  %v.dbg.spill5 = alloca [8 x i8], align 8
  %v.dbg.spill4 = alloca [8 x i8], align 8
  %v.dbg.spill3 = alloca [8 x i8], align 8
  %v.dbg.spill2 = alloca [8 x i8], align 8
  %v.dbg.spill1 = alloca [8 x i8], align 8
  %v.dbg.spill = alloca [8 x i8], align 8
  %_0 = alloca [1 x i8], align 1
  %ek = alloca [4 x i8], align 4
  store i32 %0, ptr %ek, align 4
    #dbg_declare(ptr %ek, !1064, !DIExpression(), !1192)
    #dbg_declare(ptr %ek, !1065, !DIExpression(), !1193)
    #dbg_declare(ptr %ek, !1069, !DIExpression(), !1194)
    #dbg_declare(ptr %ek, !1072, !DIExpression(), !1195)
    #dbg_declare(ptr %ek, !1075, !DIExpression(), !1196)
    #dbg_declare(ptr %ek, !1078, !DIExpression(), !1197)
    #dbg_declare(ptr %ek, !1081, !DIExpression(), !1198)
    #dbg_declare(ptr %ek, !1084, !DIExpression(), !1199)
    #dbg_declare(ptr %ek, !1087, !DIExpression(), !1200)
    #dbg_declare(ptr %ek, !1090, !DIExpression(), !1201)
    #dbg_declare(ptr %ek, !1093, !DIExpression(), !1202)
    #dbg_declare(ptr %ek, !1096, !DIExpression(), !1203)
    #dbg_declare(ptr %ek, !1099, !DIExpression(), !1204)
    #dbg_declare(ptr %ek, !1102, !DIExpression(), !1205)
    #dbg_declare(ptr %ek, !1105, !DIExpression(), !1206)
    #dbg_declare(ptr %ek, !1108, !DIExpression(), !1207)
    #dbg_declare(ptr %ek, !1111, !DIExpression(), !1208)
    #dbg_declare(ptr %ek, !1114, !DIExpression(), !1209)
    #dbg_declare(ptr %ek, !1117, !DIExpression(), !1210)
    #dbg_declare(ptr %ek, !1120, !DIExpression(), !1211)
    #dbg_declare(ptr %ek, !1123, !DIExpression(), !1212)
    #dbg_declare(ptr %ek, !1126, !DIExpression(), !1213)
    #dbg_declare(ptr %ek, !1129, !DIExpression(), !1214)
    #dbg_declare(ptr %ek, !1132, !DIExpression(), !1215)
    #dbg_declare(ptr %ek, !1135, !DIExpression(), !1216)
    #dbg_declare(ptr %ek, !1138, !DIExpression(), !1217)
    #dbg_declare(ptr %ek, !1141, !DIExpression(), !1218)
    #dbg_declare(ptr %ek, !1144, !DIExpression(), !1219)
    #dbg_declare(ptr %ek, !1147, !DIExpression(), !1220)
    #dbg_declare(ptr %ek, !1150, !DIExpression(), !1221)
    #dbg_declare(ptr %ek, !1153, !DIExpression(), !1222)
    #dbg_declare(ptr %ek, !1156, !DIExpression(), !1223)
    #dbg_declare(ptr %ek, !1159, !DIExpression(), !1224)
    #dbg_declare(ptr %ek, !1162, !DIExpression(), !1225)
    #dbg_declare(ptr %ek, !1165, !DIExpression(), !1226)
    #dbg_declare(ptr %ek, !1168, !DIExpression(), !1227)
    #dbg_declare(ptr %ek, !1171, !DIExpression(), !1228)
    #dbg_declare(ptr %ek, !1174, !DIExpression(), !1229)
    #dbg_declare(ptr %ek, !1177, !DIExpression(), !1230)
    #dbg_declare(ptr %ek, !1180, !DIExpression(), !1231)
    #dbg_declare(ptr %ek, !1183, !DIExpression(), !1232)
    #dbg_declare(ptr %ek, !1186, !DIExpression(), !1233)
    #dbg_declare(ptr %ek, !1189, !DIExpression(), !1234)
  store ptr %ek, ptr %v.dbg.spill, align 8, !dbg !1235
    #dbg_declare(ptr %v.dbg.spill, !1067, !DIExpression(), !1193)
  %1 = load i32, ptr %ek, align 4, !dbg !1236
  %2 = icmp eq i32 %1, 0, !dbg !1236
  br i1 %2, label %bb1, label %bb2, !dbg !1236

bb1:                                              ; preds = %start
  store i8 0, ptr %_0, align 1, !dbg !1237
  br label %bb85, !dbg !1238

bb2:                                              ; preds = %start
  store ptr %ek, ptr %v.dbg.spill1, align 8, !dbg !1235
    #dbg_declare(ptr %v.dbg.spill1, !1071, !DIExpression(), !1194)
  %3 = load i32, ptr %ek, align 4, !dbg !1236
  %4 = icmp eq i32 %3, 1, !dbg !1236
  br i1 %4, label %bb3, label %bb4, !dbg !1236

bb85:                                             ; preds = %bb84, %bb83, %bb81, %bb79, %bb77, %bb75, %bb73, %bb71, %bb69, %bb67, %bb65, %bb63, %bb61, %bb59, %bb57, %bb55, %bb53, %bb51, %bb49, %bb47, %bb45, %bb43, %bb41, %bb39, %bb37, %bb35, %bb33, %bb31, %bb29, %bb27, %bb25, %bb23, %bb21, %bb19, %bb17, %bb15, %bb13, %bb11, %bb9, %bb7, %bb5, %bb3, %bb1
  %5 = load i8, ptr %_0, align 1, !dbg !1239
  ret i8 %5, !dbg !1239

bb3:                                              ; preds = %bb2
  store i8 1, ptr %_0, align 1, !dbg !1240
  br label %bb85, !dbg !1238

bb4:                                              ; preds = %bb2
  store ptr %ek, ptr %v.dbg.spill2, align 8, !dbg !1235
    #dbg_declare(ptr %v.dbg.spill2, !1074, !DIExpression(), !1195)
  %6 = load i32, ptr %ek, align 4, !dbg !1236
  %7 = icmp eq i32 %6, 2, !dbg !1236
  br i1 %7, label %bb5, label %bb6, !dbg !1236

bb5:                                              ; preds = %bb4
  store i8 2, ptr %_0, align 1, !dbg !1241
  br label %bb85, !dbg !1238

bb6:                                              ; preds = %bb4
  store ptr %ek, ptr %v.dbg.spill3, align 8, !dbg !1235
    #dbg_declare(ptr %v.dbg.spill3, !1077, !DIExpression(), !1196)
  %8 = load i32, ptr %ek, align 4, !dbg !1236
  %9 = icmp eq i32 %8, 3, !dbg !1236
  br i1 %9, label %bb7, label %bb8, !dbg !1236

bb7:                                              ; preds = %bb6
  store i8 3, ptr %_0, align 1, !dbg !1242
  br label %bb85, !dbg !1238

bb8:                                              ; preds = %bb6
  store ptr %ek, ptr %v.dbg.spill4, align 8, !dbg !1235
    #dbg_declare(ptr %v.dbg.spill4, !1080, !DIExpression(), !1197)
  %10 = load i32, ptr %ek, align 4, !dbg !1236
  %11 = icmp eq i32 %10, 4, !dbg !1236
  br i1 %11, label %bb9, label %bb10, !dbg !1236

bb9:                                              ; preds = %bb8
  store i8 4, ptr %_0, align 1, !dbg !1243
  br label %bb85, !dbg !1238

bb10:                                             ; preds = %bb8
  store ptr %ek, ptr %v.dbg.spill5, align 8, !dbg !1235
    #dbg_declare(ptr %v.dbg.spill5, !1083, !DIExpression(), !1198)
  %12 = load i32, ptr %ek, align 4, !dbg !1236
  %13 = icmp eq i32 %12, 5, !dbg !1236
  br i1 %13, label %bb11, label %bb12, !dbg !1236

bb11:                                             ; preds = %bb10
  store i8 5, ptr %_0, align 1, !dbg !1244
  br label %bb85, !dbg !1238

bb12:                                             ; preds = %bb10
  store ptr %ek, ptr %v.dbg.spill6, align 8, !dbg !1235
    #dbg_declare(ptr %v.dbg.spill6, !1086, !DIExpression(), !1199)
  %14 = load i32, ptr %ek, align 4, !dbg !1236
  %15 = icmp eq i32 %14, 6, !dbg !1236
  br i1 %15, label %bb13, label %bb14, !dbg !1236

bb13:                                             ; preds = %bb12
  store i8 6, ptr %_0, align 1, !dbg !1245
  br label %bb85, !dbg !1238

bb14:                                             ; preds = %bb12
  store ptr %ek, ptr %v.dbg.spill7, align 8, !dbg !1235
    #dbg_declare(ptr %v.dbg.spill7, !1089, !DIExpression(), !1200)
  %16 = load i32, ptr %ek, align 4, !dbg !1236
  %17 = icmp eq i32 %16, 7, !dbg !1236
  br i1 %17, label %bb15, label %bb16, !dbg !1236

bb15:                                             ; preds = %bb14
  store i8 7, ptr %_0, align 1, !dbg !1246
  br label %bb85, !dbg !1238

bb16:                                             ; preds = %bb14
  store ptr %ek, ptr %v.dbg.spill8, align 8, !dbg !1235
    #dbg_declare(ptr %v.dbg.spill8, !1092, !DIExpression(), !1201)
  %18 = load i32, ptr %ek, align 4, !dbg !1236
  %19 = icmp eq i32 %18, 8, !dbg !1236
  br i1 %19, label %bb17, label %bb18, !dbg !1236

bb17:                                             ; preds = %bb16
  store i8 8, ptr %_0, align 1, !dbg !1247
  br label %bb85, !dbg !1238

bb18:                                             ; preds = %bb16
  store ptr %ek, ptr %v.dbg.spill9, align 8, !dbg !1235
    #dbg_declare(ptr %v.dbg.spill9, !1095, !DIExpression(), !1202)
  %20 = load i32, ptr %ek, align 4, !dbg !1236
  %21 = icmp eq i32 %20, 9, !dbg !1236
  br i1 %21, label %bb19, label %bb20, !dbg !1236

bb19:                                             ; preds = %bb18
  store i8 9, ptr %_0, align 1, !dbg !1248
  br label %bb85, !dbg !1238

bb20:                                             ; preds = %bb18
  store ptr %ek, ptr %v.dbg.spill10, align 8, !dbg !1235
    #dbg_declare(ptr %v.dbg.spill10, !1098, !DIExpression(), !1203)
  %22 = load i32, ptr %ek, align 4, !dbg !1236
  %23 = icmp eq i32 %22, 10, !dbg !1236
  br i1 %23, label %bb21, label %bb22, !dbg !1236

bb21:                                             ; preds = %bb20
  store i8 10, ptr %_0, align 1, !dbg !1249
  br label %bb85, !dbg !1238

bb22:                                             ; preds = %bb20
  store ptr %ek, ptr %v.dbg.spill11, align 8, !dbg !1235
    #dbg_declare(ptr %v.dbg.spill11, !1101, !DIExpression(), !1204)
  %24 = load i32, ptr %ek, align 4, !dbg !1236
  %25 = icmp eq i32 %24, 11, !dbg !1236
  br i1 %25, label %bb23, label %bb24, !dbg !1236

bb23:                                             ; preds = %bb22
  store i8 11, ptr %_0, align 1, !dbg !1250
  br label %bb85, !dbg !1238

bb24:                                             ; preds = %bb22
  store ptr %ek, ptr %v.dbg.spill12, align 8, !dbg !1235
    #dbg_declare(ptr %v.dbg.spill12, !1104, !DIExpression(), !1205)
  %26 = load i32, ptr %ek, align 4, !dbg !1236
  %27 = icmp eq i32 %26, 12, !dbg !1236
  br i1 %27, label %bb25, label %bb26, !dbg !1236

bb25:                                             ; preds = %bb24
  store i8 12, ptr %_0, align 1, !dbg !1251
  br label %bb85, !dbg !1238

bb26:                                             ; preds = %bb24
  store ptr %ek, ptr %v.dbg.spill13, align 8, !dbg !1235
    #dbg_declare(ptr %v.dbg.spill13, !1107, !DIExpression(), !1206)
  %28 = load i32, ptr %ek, align 4, !dbg !1236
  %29 = icmp eq i32 %28, 13, !dbg !1236
  br i1 %29, label %bb27, label %bb28, !dbg !1236

bb27:                                             ; preds = %bb26
  store i8 13, ptr %_0, align 1, !dbg !1252
  br label %bb85, !dbg !1238

bb28:                                             ; preds = %bb26
  store ptr %ek, ptr %v.dbg.spill14, align 8, !dbg !1235
    #dbg_declare(ptr %v.dbg.spill14, !1110, !DIExpression(), !1207)
  %30 = load i32, ptr %ek, align 4, !dbg !1236
  %31 = icmp eq i32 %30, 14, !dbg !1236
  br i1 %31, label %bb29, label %bb30, !dbg !1236

bb29:                                             ; preds = %bb28
  store i8 14, ptr %_0, align 1, !dbg !1253
  br label %bb85, !dbg !1238

bb30:                                             ; preds = %bb28
  store ptr %ek, ptr %v.dbg.spill15, align 8, !dbg !1235
    #dbg_declare(ptr %v.dbg.spill15, !1113, !DIExpression(), !1208)
  %32 = load i32, ptr %ek, align 4, !dbg !1236
  %33 = icmp eq i32 %32, 15, !dbg !1236
  br i1 %33, label %bb31, label %bb32, !dbg !1236

bb31:                                             ; preds = %bb30
  store i8 15, ptr %_0, align 1, !dbg !1254
  br label %bb85, !dbg !1238

bb32:                                             ; preds = %bb30
  store ptr %ek, ptr %v.dbg.spill16, align 8, !dbg !1235
    #dbg_declare(ptr %v.dbg.spill16, !1116, !DIExpression(), !1209)
  %34 = load i32, ptr %ek, align 4, !dbg !1236
  %35 = icmp eq i32 %34, 16, !dbg !1236
  br i1 %35, label %bb33, label %bb34, !dbg !1236

bb33:                                             ; preds = %bb32
  store i8 16, ptr %_0, align 1, !dbg !1255
  br label %bb85, !dbg !1238

bb34:                                             ; preds = %bb32
  store ptr %ek, ptr %v.dbg.spill17, align 8, !dbg !1235
    #dbg_declare(ptr %v.dbg.spill17, !1119, !DIExpression(), !1210)
  %36 = load i32, ptr %ek, align 4, !dbg !1236
  %37 = icmp eq i32 %36, 17, !dbg !1236
  br i1 %37, label %bb35, label %bb36, !dbg !1236

bb35:                                             ; preds = %bb34
  store i8 17, ptr %_0, align 1, !dbg !1256
  br label %bb85, !dbg !1238

bb36:                                             ; preds = %bb34
  store ptr %ek, ptr %v.dbg.spill18, align 8, !dbg !1235
    #dbg_declare(ptr %v.dbg.spill18, !1122, !DIExpression(), !1211)
  %38 = load i32, ptr %ek, align 4, !dbg !1236
  %39 = icmp eq i32 %38, 18, !dbg !1236
  br i1 %39, label %bb37, label %bb38, !dbg !1236

bb37:                                             ; preds = %bb36
  store i8 18, ptr %_0, align 1, !dbg !1257
  br label %bb85, !dbg !1238

bb38:                                             ; preds = %bb36
  store ptr %ek, ptr %v.dbg.spill19, align 8, !dbg !1235
    #dbg_declare(ptr %v.dbg.spill19, !1125, !DIExpression(), !1212)
  %40 = load i32, ptr %ek, align 4, !dbg !1236
  %41 = icmp eq i32 %40, 19, !dbg !1236
  br i1 %41, label %bb39, label %bb40, !dbg !1236

bb39:                                             ; preds = %bb38
  store i8 19, ptr %_0, align 1, !dbg !1258
  br label %bb85, !dbg !1238

bb40:                                             ; preds = %bb38
  store ptr %ek, ptr %v.dbg.spill20, align 8, !dbg !1235
    #dbg_declare(ptr %v.dbg.spill20, !1128, !DIExpression(), !1213)
  %42 = load i32, ptr %ek, align 4, !dbg !1236
  %43 = icmp eq i32 %42, 20, !dbg !1236
  br i1 %43, label %bb41, label %bb42, !dbg !1236

bb41:                                             ; preds = %bb40
  store i8 20, ptr %_0, align 1, !dbg !1259
  br label %bb85, !dbg !1238

bb42:                                             ; preds = %bb40
  store ptr %ek, ptr %v.dbg.spill21, align 8, !dbg !1235
    #dbg_declare(ptr %v.dbg.spill21, !1131, !DIExpression(), !1214)
  %44 = load i32, ptr %ek, align 4, !dbg !1236
  %45 = icmp eq i32 %44, 21, !dbg !1236
  br i1 %45, label %bb43, label %bb44, !dbg !1236

bb43:                                             ; preds = %bb42
  store i8 21, ptr %_0, align 1, !dbg !1260
  br label %bb85, !dbg !1238

bb44:                                             ; preds = %bb42
  store ptr %ek, ptr %v.dbg.spill22, align 8, !dbg !1235
    #dbg_declare(ptr %v.dbg.spill22, !1134, !DIExpression(), !1215)
  %46 = load i32, ptr %ek, align 4, !dbg !1236
  %47 = icmp eq i32 %46, 22, !dbg !1236
  br i1 %47, label %bb45, label %bb46, !dbg !1236

bb45:                                             ; preds = %bb44
  store i8 22, ptr %_0, align 1, !dbg !1261
  br label %bb85, !dbg !1238

bb46:                                             ; preds = %bb44
  store ptr %ek, ptr %v.dbg.spill23, align 8, !dbg !1235
    #dbg_declare(ptr %v.dbg.spill23, !1137, !DIExpression(), !1216)
  %48 = load i32, ptr %ek, align 4, !dbg !1236
  %49 = icmp eq i32 %48, 23, !dbg !1236
  br i1 %49, label %bb47, label %bb48, !dbg !1236

bb47:                                             ; preds = %bb46
  store i8 23, ptr %_0, align 1, !dbg !1262
  br label %bb85, !dbg !1238

bb48:                                             ; preds = %bb46
  store ptr %ek, ptr %v.dbg.spill24, align 8, !dbg !1235
    #dbg_declare(ptr %v.dbg.spill24, !1140, !DIExpression(), !1217)
  %50 = load i32, ptr %ek, align 4, !dbg !1236
  %51 = icmp eq i32 %50, 24, !dbg !1236
  br i1 %51, label %bb49, label %bb50, !dbg !1236

bb49:                                             ; preds = %bb48
  store i8 24, ptr %_0, align 1, !dbg !1263
  br label %bb85, !dbg !1238

bb50:                                             ; preds = %bb48
  store ptr %ek, ptr %v.dbg.spill25, align 8, !dbg !1235
    #dbg_declare(ptr %v.dbg.spill25, !1143, !DIExpression(), !1218)
  %52 = load i32, ptr %ek, align 4, !dbg !1236
  %53 = icmp eq i32 %52, 25, !dbg !1236
  br i1 %53, label %bb51, label %bb52, !dbg !1236

bb51:                                             ; preds = %bb50
  store i8 25, ptr %_0, align 1, !dbg !1264
  br label %bb85, !dbg !1238

bb52:                                             ; preds = %bb50
  store ptr %ek, ptr %v.dbg.spill26, align 8, !dbg !1235
    #dbg_declare(ptr %v.dbg.spill26, !1146, !DIExpression(), !1219)
  %54 = load i32, ptr %ek, align 4, !dbg !1236
  %55 = icmp eq i32 %54, 26, !dbg !1236
  br i1 %55, label %bb53, label %bb54, !dbg !1236

bb53:                                             ; preds = %bb52
  store i8 26, ptr %_0, align 1, !dbg !1265
  br label %bb85, !dbg !1238

bb54:                                             ; preds = %bb52
  store ptr %ek, ptr %v.dbg.spill27, align 8, !dbg !1235
    #dbg_declare(ptr %v.dbg.spill27, !1149, !DIExpression(), !1220)
  %56 = load i32, ptr %ek, align 4, !dbg !1236
  %57 = icmp eq i32 %56, 27, !dbg !1236
  br i1 %57, label %bb55, label %bb56, !dbg !1236

bb55:                                             ; preds = %bb54
  store i8 27, ptr %_0, align 1, !dbg !1266
  br label %bb85, !dbg !1238

bb56:                                             ; preds = %bb54
  store ptr %ek, ptr %v.dbg.spill28, align 8, !dbg !1235
    #dbg_declare(ptr %v.dbg.spill28, !1152, !DIExpression(), !1221)
  %58 = load i32, ptr %ek, align 4, !dbg !1236
  %59 = icmp eq i32 %58, 28, !dbg !1236
  br i1 %59, label %bb57, label %bb58, !dbg !1236

bb57:                                             ; preds = %bb56
  store i8 28, ptr %_0, align 1, !dbg !1267
  br label %bb85, !dbg !1238

bb58:                                             ; preds = %bb56
  store ptr %ek, ptr %v.dbg.spill29, align 8, !dbg !1235
    #dbg_declare(ptr %v.dbg.spill29, !1155, !DIExpression(), !1222)
  %60 = load i32, ptr %ek, align 4, !dbg !1236
  %61 = icmp eq i32 %60, 29, !dbg !1236
  br i1 %61, label %bb59, label %bb60, !dbg !1236

bb59:                                             ; preds = %bb58
  store i8 29, ptr %_0, align 1, !dbg !1268
  br label %bb85, !dbg !1238

bb60:                                             ; preds = %bb58
  store ptr %ek, ptr %v.dbg.spill30, align 8, !dbg !1235
    #dbg_declare(ptr %v.dbg.spill30, !1158, !DIExpression(), !1223)
  %62 = load i32, ptr %ek, align 4, !dbg !1236
  %63 = icmp eq i32 %62, 30, !dbg !1236
  br i1 %63, label %bb61, label %bb62, !dbg !1236

bb61:                                             ; preds = %bb60
  store i8 30, ptr %_0, align 1, !dbg !1269
  br label %bb85, !dbg !1238

bb62:                                             ; preds = %bb60
  store ptr %ek, ptr %v.dbg.spill31, align 8, !dbg !1235
    #dbg_declare(ptr %v.dbg.spill31, !1161, !DIExpression(), !1224)
  %64 = load i32, ptr %ek, align 4, !dbg !1236
  %65 = icmp eq i32 %64, 31, !dbg !1236
  br i1 %65, label %bb63, label %bb64, !dbg !1236

bb63:                                             ; preds = %bb62
  store i8 31, ptr %_0, align 1, !dbg !1270
  br label %bb85, !dbg !1238

bb64:                                             ; preds = %bb62
  store ptr %ek, ptr %v.dbg.spill32, align 8, !dbg !1235
    #dbg_declare(ptr %v.dbg.spill32, !1164, !DIExpression(), !1225)
  %66 = load i32, ptr %ek, align 4, !dbg !1236
  %67 = icmp eq i32 %66, 32, !dbg !1236
  br i1 %67, label %bb65, label %bb66, !dbg !1236

bb65:                                             ; preds = %bb64
  store i8 32, ptr %_0, align 1, !dbg !1271
  br label %bb85, !dbg !1238

bb66:                                             ; preds = %bb64
  store ptr %ek, ptr %v.dbg.spill33, align 8, !dbg !1235
    #dbg_declare(ptr %v.dbg.spill33, !1167, !DIExpression(), !1226)
  %68 = load i32, ptr %ek, align 4, !dbg !1236
  %69 = icmp eq i32 %68, 33, !dbg !1236
  br i1 %69, label %bb67, label %bb68, !dbg !1236

bb67:                                             ; preds = %bb66
  store i8 33, ptr %_0, align 1, !dbg !1272
  br label %bb85, !dbg !1238

bb68:                                             ; preds = %bb66
  store ptr %ek, ptr %v.dbg.spill34, align 8, !dbg !1235
    #dbg_declare(ptr %v.dbg.spill34, !1170, !DIExpression(), !1227)
  %70 = load i32, ptr %ek, align 4, !dbg !1236
  %71 = icmp eq i32 %70, 34, !dbg !1236
  br i1 %71, label %bb69, label %bb70, !dbg !1236

bb69:                                             ; preds = %bb68
  store i8 34, ptr %_0, align 1, !dbg !1273
  br label %bb85, !dbg !1238

bb70:                                             ; preds = %bb68
  store ptr %ek, ptr %v.dbg.spill35, align 8, !dbg !1235
    #dbg_declare(ptr %v.dbg.spill35, !1173, !DIExpression(), !1228)
  %72 = load i32, ptr %ek, align 4, !dbg !1236
  %73 = icmp eq i32 %72, 35, !dbg !1236
  br i1 %73, label %bb71, label %bb72, !dbg !1236

bb71:                                             ; preds = %bb70
  store i8 35, ptr %_0, align 1, !dbg !1274
  br label %bb85, !dbg !1238

bb72:                                             ; preds = %bb70
  store ptr %ek, ptr %v.dbg.spill36, align 8, !dbg !1235
    #dbg_declare(ptr %v.dbg.spill36, !1176, !DIExpression(), !1229)
  %74 = load i32, ptr %ek, align 4, !dbg !1236
  %75 = icmp eq i32 %74, 40, !dbg !1236
  br i1 %75, label %bb73, label %bb74, !dbg !1236

bb73:                                             ; preds = %bb72
  store i8 40, ptr %_0, align 1, !dbg !1275
  br label %bb85, !dbg !1238

bb74:                                             ; preds = %bb72
  store ptr %ek, ptr %v.dbg.spill37, align 8, !dbg !1235
    #dbg_declare(ptr %v.dbg.spill37, !1179, !DIExpression(), !1230)
  %76 = load i32, ptr %ek, align 4, !dbg !1236
  %77 = icmp eq i32 %76, 37, !dbg !1236
  br i1 %77, label %bb75, label %bb76, !dbg !1236

bb75:                                             ; preds = %bb74
  store i8 37, ptr %_0, align 1, !dbg !1276
  br label %bb85, !dbg !1238

bb76:                                             ; preds = %bb74
  store ptr %ek, ptr %v.dbg.spill38, align 8, !dbg !1235
    #dbg_declare(ptr %v.dbg.spill38, !1182, !DIExpression(), !1231)
  %78 = load i32, ptr %ek, align 4, !dbg !1236
  %79 = icmp eq i32 %78, 36, !dbg !1236
  br i1 %79, label %bb77, label %bb78, !dbg !1236

bb77:                                             ; preds = %bb76
  store i8 36, ptr %_0, align 1, !dbg !1277
  br label %bb85, !dbg !1238

bb78:                                             ; preds = %bb76
  store ptr %ek, ptr %v.dbg.spill39, align 8, !dbg !1235
    #dbg_declare(ptr %v.dbg.spill39, !1185, !DIExpression(), !1232)
  %80 = load i32, ptr %ek, align 4, !dbg !1236
  %81 = icmp eq i32 %80, 38, !dbg !1236
  br i1 %81, label %bb79, label %bb80, !dbg !1236

bb79:                                             ; preds = %bb78
  store i8 38, ptr %_0, align 1, !dbg !1278
  br label %bb85, !dbg !1238

bb80:                                             ; preds = %bb78
  store ptr %ek, ptr %v.dbg.spill40, align 8, !dbg !1235
    #dbg_declare(ptr %v.dbg.spill40, !1188, !DIExpression(), !1233)
  %82 = load i32, ptr %ek, align 4, !dbg !1236
  %83 = icmp eq i32 %82, 39, !dbg !1236
  br i1 %83, label %bb81, label %bb82, !dbg !1236

bb81:                                             ; preds = %bb80
  store i8 39, ptr %_0, align 1, !dbg !1279
  br label %bb85, !dbg !1238

bb82:                                             ; preds = %bb80
  store ptr %ek, ptr %v.dbg.spill41, align 8, !dbg !1235
    #dbg_declare(ptr %v.dbg.spill41, !1191, !DIExpression(), !1234)
  %84 = load i32, ptr %ek, align 4, !dbg !1236
  %85 = icmp eq i32 %84, 41, !dbg !1236
  br i1 %85, label %bb83, label %bb84, !dbg !1236

bb83:                                             ; preds = %bb82
  store i8 41, ptr %_0, align 1, !dbg !1280
  br label %bb85, !dbg !1238

bb84:                                             ; preds = %bb82
  store i8 42, ptr %_0, align 1, !dbg !1281
  br label %bb85, !dbg !1281
}

; std::rt::lang_start
; Function Attrs: nonlazybind uwtable
define hidden i64 @_ZN3std2rt10lang_start17h4f8a38ba352057ddE(ptr %main, i64 %argc, ptr %argv, i8 %sigpipe) unnamed_addr #1 !dbg !1282 {
start:
  %sigpipe.dbg.spill = alloca [1 x i8], align 1
  %argv.dbg.spill = alloca [8 x i8], align 8
  %argc.dbg.spill = alloca [8 x i8], align 8
  %main.dbg.spill = alloca [8 x i8], align 8
  %_7 = alloca [8 x i8], align 8
  store ptr %main, ptr %main.dbg.spill, align 8
    #dbg_declare(ptr %main.dbg.spill, !1288, !DIExpression(), !1292)
  store i64 %argc, ptr %argc.dbg.spill, align 8
    #dbg_declare(ptr %argc.dbg.spill, !1289, !DIExpression(), !1293)
  store ptr %argv, ptr %argv.dbg.spill, align 8
    #dbg_declare(ptr %argv.dbg.spill, !1290, !DIExpression(), !1294)
  store i8 %sigpipe, ptr %sigpipe.dbg.spill, align 1
    #dbg_declare(ptr %sigpipe.dbg.spill, !1291, !DIExpression(), !1295)
  store ptr %main, ptr %_7, align 8, !dbg !1296
; call std::rt::lang_start_internal
  %_0 = call i64 @_ZN3std2rt19lang_start_internal17h6ba36b077a531782E(ptr align 1 %_7, ptr align 8 @vtable.0, i64 %argc, ptr %argv, i8 %sigpipe), !dbg !1297
  ret i64 %_0, !dbg !1298
}

; std::rt::lang_start::{{closure}}
; Function Attrs: inlinehint nonlazybind uwtable
define internal i32 @"_ZN3std2rt10lang_start28_$u7b$$u7b$closure$u7d$$u7d$17hd6a3549c3f7fc45eE"(ptr align 8 %_1) unnamed_addr #0 !dbg !1299 {
start:
  %self.dbg.spill = alloca [1 x i8], align 1
  %_1.dbg.spill = alloca [8 x i8], align 8
  store ptr %_1, ptr %_1.dbg.spill, align 8
    #dbg_declare(ptr %_1.dbg.spill, !1304, !DIExpression(DW_OP_deref), !1305)
  %_4 = load ptr, ptr %_1, align 8, !dbg !1306
; call std::sys::backtrace::__rust_begin_short_backtrace
  call void @_ZN3std3sys9backtrace28__rust_begin_short_backtrace17hfd73fc25872e5c78E(ptr %_4), !dbg !1307
; call <() as std::process::Termination>::report
  %self = call i8 @"_ZN54_$LT$$LP$$RP$$u20$as$u20$std..process..Termination$GT$6report17hd7c018027f62cac7E"(), !dbg !1308
  store i8 %self, ptr %self.dbg.spill, align 1, !dbg !1308
    #dbg_declare(ptr %self.dbg.spill, !1309, !DIExpression(), !1327)
  %_0 = zext i8 %self to i32, !dbg !1329
  ret i32 %_0, !dbg !1337
}

; std::sys::backtrace::__rust_begin_short_backtrace
; Function Attrs: noinline nonlazybind uwtable
define internal void @_ZN3std3sys9backtrace28__rust_begin_short_backtrace17hfd73fc25872e5c78E(ptr %f) unnamed_addr #2 !dbg !1338 {
start:
  %dummy.dbg.spill = alloca [0 x i8], align 1
  %f.dbg.spill = alloca [8 x i8], align 8
  %result.dbg.spill = alloca [0 x i8], align 1
    #dbg_declare(ptr %result.dbg.spill, !1345, !DIExpression(), !1349)
  store ptr %f, ptr %f.dbg.spill, align 8
    #dbg_declare(ptr %f.dbg.spill, !1344, !DIExpression(), !1350)
    #dbg_declare(ptr %dummy.dbg.spill, !1351, !DIExpression(), !1356)
; call core::ops::function::FnOnce::call_once
  call void @_ZN4core3ops8function6FnOnce9call_once17h151c72d582ca06d0E(ptr %f), !dbg !1358
  call void asm sideeffect "", "~{memory}"(), !dbg !1359, !srcloc !1360
  ret void, !dbg !1361
}

; <F as core::str::pattern::Pattern>::into_searcher
; Function Attrs: inlinehint nonlazybind uwtable
define internal void @"_ZN49_$LT$F$u20$as$u20$core..str..pattern..Pattern$GT$13into_searcher17ha177a799d0c889b4E"(ptr sret([40 x i8]) align 8 %_0, ptr align 1 %haystack.0, i64 %haystack.1) unnamed_addr #0 !dbg !1362 {
start:
  %haystack.dbg.spill = alloca [16 x i8], align 8
  %self.dbg.spill = alloca [0 x i8], align 1
  %_3 = alloca [40 x i8], align 8
    #dbg_declare(ptr %self.dbg.spill, !1367, !DIExpression(), !1369)
  store ptr %haystack.0, ptr %haystack.dbg.spill, align 8
  %0 = getelementptr inbounds i8, ptr %haystack.dbg.spill, i64 8
  store i64 %haystack.1, ptr %0, align 8
    #dbg_declare(ptr %haystack.dbg.spill, !1368, !DIExpression(), !1370)
; call <core::str::pattern::MultiCharEqPattern<C> as core::str::pattern::Pattern>::into_searcher
  call void @"_ZN95_$LT$core..str..pattern..MultiCharEqPattern$LT$C$GT$$u20$as$u20$core..str..pattern..Pattern$GT$13into_searcher17hfc671d246a7e258cE"(ptr sret([40 x i8]) align 8 %_3, ptr align 1 %haystack.0, i64 %haystack.1), !dbg !1371
  call void @llvm.memcpy.p0.p0.i64(ptr align 8 %_0, ptr align 8 %_3, i64 40, i1 false), !dbg !1372
  ret void, !dbg !1373
}

; core::intrinsics::cold_path
; Function Attrs: cold nounwind nonlazybind uwtable
define internal void @_ZN4core10intrinsics9cold_path17hfb37e272d56c3010E() unnamed_addr #3 !dbg !1374 {
start:
  ret void, !dbg !1377
}

; core::fmt::rt::<impl core::fmt::Arguments>::new_v1
; Function Attrs: inlinehint nonlazybind uwtable
define internal void @"_ZN4core3fmt2rt38_$LT$impl$u20$core..fmt..Arguments$GT$6new_v117ha31bb10b052bd0e3E"(ptr sret([48 x i8]) align 8 %_0, ptr align 8 %pieces, ptr align 8 %args) unnamed_addr #0 !dbg !1378 {
start:
  %args.dbg.spill = alloca [8 x i8], align 8
  %pieces.dbg.spill = alloca [8 x i8], align 8
  store ptr %pieces, ptr %pieces.dbg.spill, align 8
    #dbg_declare(ptr %pieces.dbg.spill, !1446, !DIExpression(), !1448)
  store ptr %args, ptr %args.dbg.spill, align 8
    #dbg_declare(ptr %args.dbg.spill, !1447, !DIExpression(), !1449)
  store ptr %pieces, ptr %_0, align 8, !dbg !1450
  %0 = getelementptr inbounds i8, ptr %_0, i64 8, !dbg !1450
  store i64 3, ptr %0, align 8, !dbg !1450
  %1 = load ptr, ptr @anon.17a64ccdb0dd3b2223636ea1105fd72b.1, align 8, !dbg !1450
  %2 = load i64, ptr getelementptr inbounds (i8, ptr @anon.17a64ccdb0dd3b2223636ea1105fd72b.1, i64 8), align 8, !dbg !1450
  %3 = getelementptr inbounds i8, ptr %_0, i64 32, !dbg !1450
  store ptr %1, ptr %3, align 8, !dbg !1450
  %4 = getelementptr inbounds i8, ptr %3, i64 8, !dbg !1450
  store i64 %2, ptr %4, align 8, !dbg !1450
  %5 = getelementptr inbounds i8, ptr %_0, i64 16, !dbg !1450
  store ptr %args, ptr %5, align 8, !dbg !1450
  %6 = getelementptr inbounds i8, ptr %5, i64 8, !dbg !1450
  store i64 2, ptr %6, align 8, !dbg !1450
  ret void, !dbg !1451
}

; core::fmt::rt::<impl core::fmt::Arguments>::new_const
; Function Attrs: inlinehint nonlazybind uwtable
define internal void @"_ZN4core3fmt2rt38_$LT$impl$u20$core..fmt..Arguments$GT$9new_const17he3abd89f5cf2f7c6E"(ptr sret([48 x i8]) align 8 %_0, ptr align 8 %pieces) unnamed_addr #0 !dbg !1452 {
start:
  %pieces.dbg.spill = alloca [8 x i8], align 8
  store ptr %pieces, ptr %pieces.dbg.spill, align 8
    #dbg_declare(ptr %pieces.dbg.spill, !1459, !DIExpression(), !1460)
  store ptr %pieces, ptr %_0, align 8, !dbg !1461
  %0 = getelementptr inbounds i8, ptr %_0, i64 8, !dbg !1461
  store i64 1, ptr %0, align 8, !dbg !1461
  %1 = load ptr, ptr @anon.17a64ccdb0dd3b2223636ea1105fd72b.1, align 8, !dbg !1461
  %2 = load i64, ptr getelementptr inbounds (i8, ptr @anon.17a64ccdb0dd3b2223636ea1105fd72b.1, i64 8), align 8, !dbg !1461
  %3 = getelementptr inbounds i8, ptr %_0, i64 32, !dbg !1461
  store ptr %1, ptr %3, align 8, !dbg !1461
  %4 = getelementptr inbounds i8, ptr %3, i64 8, !dbg !1461
  store i64 %2, ptr %4, align 8, !dbg !1461
  %5 = getelementptr inbounds i8, ptr %_0, i64 16, !dbg !1461
  store ptr inttoptr (i64 8 to ptr), ptr %5, align 8, !dbg !1461
  %6 = getelementptr inbounds i8, ptr %5, i64 8, !dbg !1461
  store i64 0, ptr %6, align 8, !dbg !1461
  ret void, !dbg !1462
}

; core::fmt::rt::Argument::new_display
; Function Attrs: inlinehint nonlazybind uwtable
define internal void @_ZN4core3fmt2rt8Argument11new_display17hca9c2967ca7abe86E(ptr sret([16 x i8]) align 8 %_0, ptr align 8 %x) unnamed_addr #0 !dbg !1463 {
start:
  %x.dbg.spill = alloca [8 x i8], align 8
  %_2 = alloca [16 x i8], align 8
  store ptr %x, ptr %x.dbg.spill, align 8
    #dbg_declare(ptr %x.dbg.spill, !1470, !DIExpression(), !1471)
    #dbg_declare(ptr %x.dbg.spill, !1472, !DIExpression(), !1482)
  store ptr %x, ptr %_2, align 8, !dbg !1484
  %0 = getelementptr inbounds i8, ptr %_2, i64 8, !dbg !1484
  store ptr @"_ZN4core3fmt3num3imp54_$LT$impl$u20$core..fmt..Display$u20$for$u20$usize$GT$3fmt17h47414302a1568dceE", ptr %0, align 8, !dbg !1484
  call void @llvm.memcpy.p0.p0.i64(ptr align 8 %_0, ptr align 8 %_2, i64 16, i1 false), !dbg !1485
  ret void, !dbg !1486
}

; core::fmt::rt::Argument::new_display
; Function Attrs: inlinehint nonlazybind uwtable
define internal void @_ZN4core3fmt2rt8Argument11new_display17hf813ef35622ef23eE(ptr sret([16 x i8]) align 8 %_0, ptr align 4 %x) unnamed_addr #0 !dbg !1487 {
start:
  %x.dbg.spill = alloca [8 x i8], align 8
  %_2 = alloca [16 x i8], align 8
  store ptr %x, ptr %x.dbg.spill, align 8
    #dbg_declare(ptr %x.dbg.spill, !1495, !DIExpression(), !1496)
    #dbg_declare(ptr %x.dbg.spill, !1497, !DIExpression(), !1507)
  store ptr %x, ptr %_2, align 8, !dbg !1509
  %0 = getelementptr inbounds i8, ptr %_2, i64 8, !dbg !1509
  store ptr @"_ZN4core3fmt3num3imp52_$LT$impl$u20$core..fmt..Display$u20$for$u20$i32$GT$3fmt17h1d34aa19ad65fef9E", ptr %0, align 8, !dbg !1509
  call void @llvm.memcpy.p0.p0.i64(ptr align 8 %_0, ptr align 8 %_2, i64 16, i1 false), !dbg !1510
  ret void, !dbg !1511
}

; core::num::<impl isize>::unchecked_neg::precondition_check
; Function Attrs: inlinehint nounwind nonlazybind uwtable
define internal void @"_ZN4core3num23_$LT$impl$u20$isize$GT$13unchecked_neg18precondition_check17h9513856e1ce144c0E"(i64 %lhs, ptr align 8 %0) unnamed_addr #4 !dbg !1512 {
start:
  %pieces.dbg.spill = alloca [8 x i8], align 8
  %b.dbg.spill = alloca [1 x i8], align 1
  %msg.dbg.spill = alloca [16 x i8], align 8
  %lhs.dbg.spill = alloca [8 x i8], align 8
  %_5 = alloca [16 x i8], align 8
  %_3 = alloca [48 x i8], align 8
  store i64 %lhs, ptr %lhs.dbg.spill, align 8
    #dbg_declare(ptr %lhs.dbg.spill, !1517, !DIExpression(), !1520)
    #dbg_declare(ptr %lhs.dbg.spill, !1521, !DIExpression(), !1530)
  store ptr @alloc_dbcce5cb8873847766db4f16f930a00e, ptr %msg.dbg.spill, align 8, !dbg !1533
  %1 = getelementptr inbounds i8, ptr %msg.dbg.spill, i64 8, !dbg !1533
  store i64 186, ptr %1, align 8, !dbg !1533
    #dbg_declare(ptr %msg.dbg.spill, !1518, !DIExpression(), !1533)
  %b = icmp eq i64 %lhs, -9223372036854775808, !dbg !1534
  %2 = zext i1 %b to i8, !dbg !1534
  store i8 %2, ptr %b.dbg.spill, align 1, !dbg !1534
    #dbg_declare(ptr %b.dbg.spill, !1535, !DIExpression(), !1540)
  br i1 %b, label %bb1, label %bb3, !dbg !1542

bb3:                                              ; preds = %start
  ret void, !dbg !1543

bb1:                                              ; preds = %start
  %3 = getelementptr inbounds nuw { ptr, i64 }, ptr %_5, i64 0, !dbg !1544
  store ptr @alloc_dbcce5cb8873847766db4f16f930a00e, ptr %3, align 8, !dbg !1544
  %4 = getelementptr inbounds i8, ptr %3, i64 8, !dbg !1544
  store i64 186, ptr %4, align 8, !dbg !1544
  store ptr %_5, ptr %pieces.dbg.spill, align 8, !dbg !1545
    #dbg_declare(ptr %pieces.dbg.spill, !1546, !DIExpression(), !1549)
  store ptr %_5, ptr %_3, align 8, !dbg !1551
  %5 = getelementptr inbounds i8, ptr %_3, i64 8, !dbg !1551
  store i64 1, ptr %5, align 8, !dbg !1551
  %6 = load ptr, ptr @anon.17a64ccdb0dd3b2223636ea1105fd72b.1, align 8, !dbg !1551
  %7 = load i64, ptr getelementptr inbounds (i8, ptr @anon.17a64ccdb0dd3b2223636ea1105fd72b.1, i64 8), align 8, !dbg !1551
  %8 = getelementptr inbounds i8, ptr %_3, i64 32, !dbg !1551
  store ptr %6, ptr %8, align 8, !dbg !1551
  %9 = getelementptr inbounds i8, ptr %8, i64 8, !dbg !1551
  store i64 %7, ptr %9, align 8, !dbg !1551
  %10 = getelementptr inbounds i8, ptr %_3, i64 16, !dbg !1551
  store ptr inttoptr (i64 8 to ptr), ptr %10, align 8, !dbg !1551
  %11 = getelementptr inbounds i8, ptr %10, i64 8, !dbg !1551
  store i64 0, ptr %11, align 8, !dbg !1551
; call core::panicking::panic_nounwind_fmt
  call void @_ZN4core9panicking18panic_nounwind_fmt17h622822847ebd61beE(ptr align 8 %_3, i1 zeroext false, ptr align 8 %0) #16, !dbg !1552
  unreachable, !dbg !1552
}

; core::num::<impl usize>::from_ascii_radix
; Function Attrs: inlinehint nonlazybind uwtable
define internal void @"_ZN4core3num23_$LT$impl$u20$usize$GT$16from_ascii_radix17h93a08a45bd5dd175E"(ptr sret([16 x i8]) align 8 %_0, ptr align 1 %src.0, i64 %src.1, i32 %radix) unnamed_addr #0 !dbg !1553 {
start:
  %x.dbg.spill21 = alloca [4 x i8], align 4
  %rest.dbg.spill19 = alloca [16 x i8], align 8
  %c.dbg.spill16 = alloca [8 x i8], align 8
  %value.dbg.spill14 = alloca [8 x i8], align 8
  %b.dbg.spill12 = alloca [1 x i8], align 1
  %self.dbg.spill11 = alloca [8 x i8], align 8
  %value.dbg.spill9 = alloca [8 x i8], align 8
  %x.dbg.spill = alloca [8 x i8], align 8
  %value.dbg.spill = alloca [4 x i8], align 4
  %a.dbg.spill = alloca [8 x i8], align 8
  %b.dbg.spill = alloca [1 x i8], align 1
  %rhs.dbg.spill = alloca [8 x i8], align 8
  %self.dbg.spill = alloca [8 x i8], align 8
  %rest.dbg.spill7 = alloca [16 x i8], align 8
  %c.dbg.spill = alloca [8 x i8], align 8
  %rest.dbg.spill4 = alloca [8 x i8], align 8
  %rest.dbg.spill = alloca [16 x i8], align 8
  %is_signed_ty.dbg.spill3 = alloca [1 x i8], align 1
  %is_signed_ty.dbg.spill = alloca [1 x i8], align 1
  %radix.dbg.spill = alloca [4 x i8], align 4
  %src.dbg.spill = alloca [16 x i8], align 8
  %_82 = alloca [16 x i8], align 8
  %_81 = alloca [1 x i8], align 1
  %_67 = alloca [8 x i8], align 8
  %_66 = alloca [1 x i8], align 1
  %_49 = alloca [16 x i8], align 8
  %_42 = alloca [8 x i8], align 4
  %mul = alloca [16 x i8], align 8
  %_23 = alloca [8 x i8], align 4
  %digits2 = alloca [16 x i8], align 8
  %radix1 = alloca [4 x i8], align 4
  %_14 = alloca [1 x i8], align 1
  %result = alloca [8 x i8], align 8
  %rest = alloca [16 x i8], align 8
  %digits = alloca [16 x i8], align 8
  %is_positive = alloca [1 x i8], align 1
  store ptr %src.0, ptr %src.dbg.spill, align 8
  %0 = getelementptr inbounds i8, ptr %src.dbg.spill, i64 8
  store i64 %src.1, ptr %0, align 8
    #dbg_declare(ptr %src.dbg.spill, !1578, !DIExpression(), !1644)
    #dbg_declare(ptr %src.dbg.spill, !1645, !DIExpression(), !1652)
  store i32 %radix, ptr %radix.dbg.spill, align 4
    #dbg_declare(ptr %radix.dbg.spill, !1579, !DIExpression(), !1654)
    #dbg_declare(ptr %is_positive, !1582, !DIExpression(), !1655)
    #dbg_declare(ptr %digits, !1584, !DIExpression(), !1656)
    #dbg_declare(ptr %rest, !1587, !DIExpression(), !1657)
    #dbg_declare(ptr %result, !1591, !DIExpression(), !1658)
    #dbg_declare(ptr %radix1, !1659, !DIExpression(), !1666)
    #dbg_declare(ptr %digits2, !1665, !DIExpression(), !1668)
    #dbg_declare(ptr %mul, !1610, !DIExpression(), !1669)
  store i8 0, ptr %is_signed_ty.dbg.spill, align 1, !dbg !1670
    #dbg_declare(ptr %is_signed_ty.dbg.spill, !1580, !DIExpression(), !1670)
  store i8 0, ptr %is_signed_ty.dbg.spill3, align 1, !dbg !1671
    #dbg_declare(ptr %is_signed_ty.dbg.spill3, !1664, !DIExpression(), !1671)
  %_3 = icmp ugt i32 2, %radix, !dbg !1672
  br i1 %_3, label %bb2, label %bb1, !dbg !1672

bb1:                                              ; preds = %start
  %_4 = icmp ugt i32 %radix, 36, !dbg !1673
  br i1 %_4, label %bb2, label %bb3, !dbg !1673

bb2:                                              ; preds = %bb1, %start
; call core::num::from_ascii_radix_panic
  call void @_ZN4core3num22from_ascii_radix_panic17hbd13ec38c0e6ecfbE(i32 %radix, ptr align 8 @alloc_ce0610c284ab9716c052bc29463b18fc) #15, !dbg !1674
  unreachable, !dbg !1674

bb3:                                              ; preds = %bb1
  %1 = icmp eq i64 %src.1, 0, !dbg !1675
  br i1 %1, label %bb4, label %bb5, !dbg !1675

bb4:                                              ; preds = %bb3
  %2 = getelementptr inbounds i8, ptr %_0, i64 1, !dbg !1676
  store i8 0, ptr %2, align 1, !dbg !1676
  store i8 1, ptr %_0, align 8, !dbg !1676
  br label %bb31, !dbg !1677

bb5:                                              ; preds = %bb3
  %3 = icmp eq i64 %src.1, 1, !dbg !1679
  br i1 %3, label %bb7, label %bb6, !dbg !1679

bb31:                                             ; preds = %bb30, %bb28, %bb12, %bb4
  ret void, !dbg !1680

bb7:                                              ; preds = %bb5
  %4 = getelementptr inbounds nuw i8, ptr %src.0, i64 0, !dbg !1681
  %5 = load i8, ptr %4, align 1, !dbg !1681
  switch i8 %5, label %bb6 [
    i8 43, label %bb12
    i8 45, label %bb12
  ], !dbg !1681

bb6:                                              ; preds = %bb7, %bb5
  %_9 = icmp uge i64 %src.1, 1, !dbg !1682
  br i1 %_9, label %bb9, label %bb8, !dbg !1682

bb12:                                             ; preds = %bb7, %bb7
  %6 = getelementptr inbounds i8, ptr %_0, i64 1, !dbg !1683
  store i8 1, ptr %6, align 1, !dbg !1683
  store i8 1, ptr %_0, align 8, !dbg !1683
  br label %bb31, !dbg !1684

bb8:                                              ; preds = %bb10, %bb9, %bb6
  store i8 1, ptr %_81, align 1, !dbg !1686
  store ptr %src.0, ptr %_82, align 8, !dbg !1686
  %7 = getelementptr inbounds i8, ptr %_82, i64 8, !dbg !1686
  store i64 %src.1, ptr %7, align 8, !dbg !1686
  %8 = load i8, ptr %_81, align 1, !dbg !1687
  %9 = trunc nuw i8 %8 to i1, !dbg !1687
  %10 = zext i1 %9 to i8, !dbg !1687
  store i8 %10, ptr %is_positive, align 1, !dbg !1687
  %11 = load ptr, ptr %_82, align 8, !dbg !1688
  %12 = getelementptr inbounds i8, ptr %_82, i64 8, !dbg !1688
  %13 = load i64, ptr %12, align 8, !dbg !1688
  store ptr %11, ptr %digits, align 8, !dbg !1688
  %14 = getelementptr inbounds i8, ptr %digits, i64 8, !dbg !1688
  store i64 %13, ptr %14, align 8, !dbg !1688
  store i64 0, ptr %result, align 8, !dbg !1689
  store i32 %radix, ptr %radix1, align 4, !dbg !1690
  %15 = load ptr, ptr %digits, align 8, !dbg !1691
  %16 = getelementptr inbounds i8, ptr %digits, i64 8, !dbg !1691
  %17 = load i64, ptr %16, align 8, !dbg !1691
  store ptr %15, ptr %digits2, align 8, !dbg !1691
  %18 = getelementptr inbounds i8, ptr %digits2, i64 8, !dbg !1691
  store i64 %17, ptr %18, align 8, !dbg !1691
  %19 = icmp ule i32 %radix, 16, !dbg !1692
  %20 = zext i1 %19 to i8, !dbg !1692
  store i8 %20, ptr %_66, align 1, !dbg !1692
  %21 = load i8, ptr %_66, align 1, !dbg !1692
  %22 = trunc nuw i8 %21 to i1, !dbg !1692
  br i1 %22, label %bb40, label %bb44, !dbg !1692

bb9:                                              ; preds = %bb6
  %23 = getelementptr inbounds nuw i8, ptr %src.0, i64 0, !dbg !1681
  %24 = load i8, ptr %23, align 1, !dbg !1681
  switch i8 %24, label %bb8 [
    i8 43, label %bb11
    i8 45, label %bb10
  ], !dbg !1681

bb11:                                             ; preds = %bb9
  %rest.0 = getelementptr inbounds nuw i8, ptr %src.0, i64 1, !dbg !1693
  %rest.1 = sub i64 %src.1, 1, !dbg !1693
  store ptr %rest.0, ptr %rest.dbg.spill, align 8, !dbg !1693
  %25 = getelementptr inbounds i8, ptr %rest.dbg.spill, i64 8, !dbg !1693
  store i64 %rest.1, ptr %25, align 8, !dbg !1693
    #dbg_declare(ptr %rest.dbg.spill, !1585, !DIExpression(), !1694)
  store i8 1, ptr %_81, align 1, !dbg !1695
  store ptr %rest.0, ptr %_82, align 8, !dbg !1695
  %26 = getelementptr inbounds i8, ptr %_82, i64 8, !dbg !1695
  store i64 %rest.1, ptr %26, align 8, !dbg !1695
  %27 = load i8, ptr %_81, align 1, !dbg !1687
  %28 = trunc nuw i8 %27 to i1, !dbg !1687
  %29 = zext i1 %28 to i8, !dbg !1687
  store i8 %29, ptr %is_positive, align 1, !dbg !1687
  %30 = load ptr, ptr %_82, align 8, !dbg !1688
  %31 = getelementptr inbounds i8, ptr %_82, i64 8, !dbg !1688
  %32 = load i64, ptr %31, align 8, !dbg !1688
  store ptr %30, ptr %digits, align 8, !dbg !1688
  %33 = getelementptr inbounds i8, ptr %digits, i64 8, !dbg !1688
  store i64 %32, ptr %33, align 8, !dbg !1688
  store i64 0, ptr %result, align 8, !dbg !1689
  store i32 %radix, ptr %radix1, align 4, !dbg !1690
  %34 = load ptr, ptr %digits, align 8, !dbg !1691
  %35 = getelementptr inbounds i8, ptr %digits, i64 8, !dbg !1691
  %36 = load i64, ptr %35, align 8, !dbg !1691
  store ptr %34, ptr %digits2, align 8, !dbg !1691
  %37 = getelementptr inbounds i8, ptr %digits2, i64 8, !dbg !1691
  store i64 %36, ptr %37, align 8, !dbg !1691
  %38 = icmp ule i32 %radix, 16, !dbg !1692
  %39 = zext i1 %38 to i8, !dbg !1692
  store i8 %39, ptr %_66, align 1, !dbg !1692
  %40 = load i8, ptr %_66, align 1, !dbg !1692
  %41 = trunc nuw i8 %40 to i1, !dbg !1692
  br i1 %41, label %bb42, label %bb45, !dbg !1692

bb10:                                             ; preds = %bb9
  %42 = getelementptr inbounds nuw i8, ptr %src.0, i64 1, !dbg !1696
  %43 = sub i64 %src.1, 1, !dbg !1696
  store ptr %42, ptr %rest, align 8, !dbg !1696
  %44 = getelementptr inbounds i8, ptr %rest, i64 8, !dbg !1696
  store i64 %43, ptr %44, align 8, !dbg !1696
  store ptr %rest, ptr %rest.dbg.spill4, align 8, !dbg !1696
    #dbg_declare(ptr %rest.dbg.spill4, !1589, !DIExpression(), !1657)
  br label %bb8, !dbg !1697

bb45:                                             ; preds = %bb11
  br label %bb19, !dbg !1698

bb42:                                             ; preds = %bb11
  %45 = load ptr, ptr %digits2, align 8, !dbg !1699
  %46 = getelementptr inbounds i8, ptr %digits2, i64 8, !dbg !1699
  %47 = load i64, ptr %46, align 8, !dbg !1699
  store i64 %47, ptr %_67, align 8, !dbg !1699
  %48 = load i64, ptr %_67, align 8, !dbg !1699
  %49 = icmp ule i64 %48, 16, !dbg !1699
  %50 = zext i1 %49 to i8, !dbg !1699
  store i8 %50, ptr %_14, align 1, !dbg !1699
  %51 = load i8, ptr %_14, align 1, !dbg !1667
  %52 = trunc nuw i8 %51 to i1, !dbg !1667
  br i1 %52, label %bb43, label %bb47, !dbg !1667

bb19:                                             ; preds = %bb27, %bb46, %bb44, %bb47, %bb45
  %53 = load ptr, ptr %digits, align 8, !dbg !1700
  %54 = getelementptr inbounds i8, ptr %digits, i64 8, !dbg !1700
  %_34 = load i64, ptr %54, align 8, !dbg !1700
  %_35 = icmp uge i64 %_34, 1, !dbg !1700
  br i1 %_35, label %bb20, label %bb28, !dbg !1700

bb47:                                             ; preds = %bb42
  br label %bb19, !dbg !1698

bb43:                                             ; preds = %bb42
  br label %bb13, !dbg !1701

bb13:                                             ; preds = %bb18, %bb41, %bb43
  %55 = load ptr, ptr %digits, align 8, !dbg !1702
  %56 = getelementptr inbounds i8, ptr %digits, i64 8, !dbg !1702
  %_17 = load i64, ptr %56, align 8, !dbg !1702
  %_18 = icmp uge i64 %_17, 1, !dbg !1702
  br i1 %_18, label %bb14, label %bb28, !dbg !1702

bb44:                                             ; preds = %bb8
  br label %bb19, !dbg !1698

bb40:                                             ; preds = %bb8
  %57 = load ptr, ptr %digits2, align 8, !dbg !1699
  %58 = getelementptr inbounds i8, ptr %digits2, i64 8, !dbg !1699
  %59 = load i64, ptr %58, align 8, !dbg !1699
  store i64 %59, ptr %_67, align 8, !dbg !1699
  %60 = load i64, ptr %_67, align 8, !dbg !1699
  %61 = icmp ule i64 %60, 16, !dbg !1699
  %62 = zext i1 %61 to i8, !dbg !1699
  store i8 %62, ptr %_14, align 1, !dbg !1699
  %63 = load i8, ptr %_14, align 1, !dbg !1667
  %64 = trunc nuw i8 %63 to i1, !dbg !1667
  br i1 %64, label %bb41, label %bb46, !dbg !1667

bb46:                                             ; preds = %bb40
  br label %bb19, !dbg !1698

bb41:                                             ; preds = %bb40
  br label %bb13, !dbg !1701

bb28:                                             ; preds = %bb13, %bb19
  %_64 = load i64, ptr %result, align 8, !dbg !1703
  %65 = getelementptr inbounds i8, ptr %_0, i64 8, !dbg !1704
  store i64 %_64, ptr %65, align 8, !dbg !1704
  store i8 0, ptr %_0, align 8, !dbg !1704
  br label %bb31, !dbg !1680

bb20:                                             ; preds = %bb19
  %66 = load ptr, ptr %digits, align 8, !dbg !1705
  %67 = getelementptr inbounds i8, ptr %digits, i64 8, !dbg !1705
  %68 = load i64, ptr %67, align 8, !dbg !1705
  %c = getelementptr inbounds nuw i8, ptr %66, i64 0, !dbg !1705
  store ptr %c, ptr %c.dbg.spill, align 8, !dbg !1705
    #dbg_declare(ptr %c.dbg.spill, !1607, !DIExpression(), !1705)
  %69 = load ptr, ptr %digits, align 8, !dbg !1706
  %70 = getelementptr inbounds i8, ptr %digits, i64 8, !dbg !1706
  %71 = load i64, ptr %70, align 8, !dbg !1706
  %rest.05 = getelementptr inbounds nuw i8, ptr %69, i64 1, !dbg !1706
  %rest.16 = sub i64 %71, 1, !dbg !1706
  store ptr %rest.05, ptr %rest.dbg.spill7, align 8, !dbg !1706
  %72 = getelementptr inbounds i8, ptr %rest.dbg.spill7, i64 8, !dbg !1706
  store i64 %rest.16, ptr %72, align 8, !dbg !1706
    #dbg_declare(ptr %rest.dbg.spill7, !1609, !DIExpression(), !1706)
  %self = load i64, ptr %result, align 8, !dbg !1707
  store i64 %self, ptr %self.dbg.spill, align 8, !dbg !1707
    #dbg_declare(ptr %self.dbg.spill, !1708, !DIExpression(), !1722)
    #dbg_declare(ptr %self.dbg.spill, !1724, !DIExpression(), !1734)
  %rhs = zext i32 %radix to i64, !dbg !1736
  store i64 %rhs, ptr %rhs.dbg.spill, align 8, !dbg !1736
    #dbg_declare(ptr %rhs.dbg.spill, !1715, !DIExpression(), !1737)
    #dbg_declare(ptr %rhs.dbg.spill, !1733, !DIExpression(), !1738)
  %73 = call { i64, i1 } @llvm.umul.with.overflow.i64(i64 %self, i64 %rhs), !dbg !1739
  %_70.0 = extractvalue { i64, i1 } %73, 0, !dbg !1739
  %_70.1 = extractvalue { i64, i1 } %73, 1, !dbg !1739
  %74 = zext i1 %_70.1 to i8, !dbg !1740
  store i8 %74, ptr %b.dbg.spill, align 1, !dbg !1740
    #dbg_declare(ptr %b.dbg.spill, !1718, !DIExpression(), !1741)
    #dbg_declare(ptr %b.dbg.spill, !1742, !DIExpression(), !1745)
  store i64 %_70.0, ptr %a.dbg.spill, align 8, !dbg !1747
    #dbg_declare(ptr %a.dbg.spill, !1716, !DIExpression(), !1748)
  br i1 %_70.1, label %bb33, label %bb35, !dbg !1749

bb35:                                             ; preds = %bb20
  %75 = getelementptr inbounds i8, ptr %mul, i64 8, !dbg !1750
  store i64 %_70.0, ptr %75, align 8, !dbg !1750
  store i64 1, ptr %mul, align 8, !dbg !1750
  br label %bb32, !dbg !1751

bb33:                                             ; preds = %bb20
  %76 = load i64, ptr @anon.17a64ccdb0dd3b2223636ea1105fd72b.1, align 8, !dbg !1752
  %77 = load i64, ptr getelementptr inbounds (i8, ptr @anon.17a64ccdb0dd3b2223636ea1105fd72b.1, i64 8), align 8, !dbg !1752
  store i64 %76, ptr %mul, align 8, !dbg !1752
  %78 = getelementptr inbounds i8, ptr %mul, i64 8, !dbg !1752
  store i64 %77, ptr %78, align 8, !dbg !1752
  br label %bb32, !dbg !1751

bb32:                                             ; preds = %bb33, %bb35
  %_44 = load i8, ptr %c, align 1, !dbg !1753
  %_43 = zext i8 %_44 to i32, !dbg !1754
; call core::char::methods::<impl char>::to_digit
  %79 = call { i32, i32 } @"_ZN4core4char7methods22_$LT$impl$u20$char$GT$8to_digit17h1e32b6ba8b6df7dbE"(i32 %_43, i32 %radix), !dbg !1755
  %80 = extractvalue { i32, i32 } %79, 0, !dbg !1755
  %81 = extractvalue { i32, i32 } %79, 1, !dbg !1755
  store i32 %80, ptr %_42, align 4, !dbg !1755
  %82 = getelementptr inbounds i8, ptr %_42, i64 4, !dbg !1755
  store i32 %81, ptr %82, align 4, !dbg !1755
  %83 = load i32, ptr %_42, align 4, !dbg !1754
  %84 = getelementptr inbounds i8, ptr %_42, i64 4, !dbg !1754
  %85 = load i32, ptr %84, align 4, !dbg !1754
  %_45 = zext i32 %83 to i64, !dbg !1754
  %86 = trunc nuw i64 %_45 to i1, !dbg !1756
  br i1 %86, label %bb23, label %bb22, !dbg !1756

bb23:                                             ; preds = %bb32
  %87 = getelementptr inbounds i8, ptr %_42, i64 4, !dbg !1757
  %value = load i32, ptr %87, align 4, !dbg !1757
  store i32 %value, ptr %value.dbg.spill, align 4, !dbg !1757
    #dbg_declare(ptr %value.dbg.spill, !1625, !DIExpression(), !1758)
  %x = zext i32 %value to i64, !dbg !1759
  store i64 %x, ptr %x.dbg.spill, align 8, !dbg !1759
    #dbg_declare(ptr %x.dbg.spill, !1623, !DIExpression(), !1760)
    #dbg_declare(ptr %x.dbg.spill, !1761, !DIExpression(), !1765)
  %_47 = load i64, ptr %mul, align 8, !dbg !1767
  %88 = getelementptr inbounds i8, ptr %mul, i64 8, !dbg !1767
  %89 = load i64, ptr %88, align 8, !dbg !1767
  %90 = trunc nuw i64 %_47 to i1, !dbg !1768
  br i1 %90, label %bb25, label %bb24, !dbg !1768

bb22:                                             ; preds = %bb32
  %91 = getelementptr inbounds i8, ptr %_0, i64 1, !dbg !1769
  store i8 1, ptr %91, align 1, !dbg !1769
  store i8 1, ptr %_0, align 8, !dbg !1769
  br label %bb29, !dbg !1770

bb29:                                             ; preds = %bb26, %bb24, %bb22
  br label %bb30, !dbg !1772

bb25:                                             ; preds = %bb23
  %92 = getelementptr inbounds i8, ptr %mul, i64 8, !dbg !1774
  %value8 = load i64, ptr %92, align 8, !dbg !1774
  store i64 %value8, ptr %value.dbg.spill9, align 8, !dbg !1774
    #dbg_declare(ptr %value.dbg.spill9, !1627, !DIExpression(), !1775)
  store i64 %value8, ptr %result, align 8, !dbg !1776
  %self10 = load i64, ptr %result, align 8, !dbg !1777
  store i64 %self10, ptr %self.dbg.spill11, align 8, !dbg !1777
    #dbg_declare(ptr %self.dbg.spill11, !1764, !DIExpression(), !1778)
  %_76.0 = add i64 %self10, %x, !dbg !1779
  %_76.1 = icmp ult i64 %_76.0, %self10, !dbg !1779
  %93 = zext i1 %_76.1 to i8, !dbg !1779
  store i8 %93, ptr %b.dbg.spill12, align 1, !dbg !1779
    #dbg_declare(ptr %b.dbg.spill12, !1742, !DIExpression(), !1780)
  br i1 %_76.1, label %bb37, label %bb39, !dbg !1782

bb24:                                             ; preds = %bb23
  %94 = getelementptr inbounds i8, ptr %_0, i64 1, !dbg !1783
  store i8 2, ptr %94, align 1, !dbg !1783
  store i8 1, ptr %_0, align 8, !dbg !1783
  br label %bb29, !dbg !1784

bb39:                                             ; preds = %bb25
  %_77 = add nuw i64 %self10, %x, !dbg !1786
  %95 = getelementptr inbounds i8, ptr %_49, i64 8, !dbg !1787
  store i64 %_77, ptr %95, align 8, !dbg !1787
  store i64 1, ptr %_49, align 8, !dbg !1787
  br label %bb36, !dbg !1788

bb37:                                             ; preds = %bb25
  %96 = load i64, ptr @anon.17a64ccdb0dd3b2223636ea1105fd72b.1, align 8, !dbg !1789
  %97 = load i64, ptr getelementptr inbounds (i8, ptr @anon.17a64ccdb0dd3b2223636ea1105fd72b.1, i64 8), align 8, !dbg !1789
  store i64 %96, ptr %_49, align 8, !dbg !1789
  %98 = getelementptr inbounds i8, ptr %_49, i64 8, !dbg !1789
  store i64 %97, ptr %98, align 8, !dbg !1789
  br label %bb36, !dbg !1788

bb36:                                             ; preds = %bb37, %bb39
  %_51 = load i64, ptr %_49, align 8, !dbg !1766
  %99 = getelementptr inbounds i8, ptr %_49, i64 8, !dbg !1766
  %100 = load i64, ptr %99, align 8, !dbg !1766
  %101 = trunc nuw i64 %_51 to i1, !dbg !1768
  br i1 %101, label %bb27, label %bb26, !dbg !1768

bb27:                                             ; preds = %bb36
  %102 = getelementptr inbounds i8, ptr %_49, i64 8, !dbg !1774
  %value13 = load i64, ptr %102, align 8, !dbg !1774
  store i64 %value13, ptr %value.dbg.spill14, align 8, !dbg !1774
    #dbg_declare(ptr %value.dbg.spill14, !1629, !DIExpression(), !1790)
  store i64 %value13, ptr %result, align 8, !dbg !1791
  store ptr %rest.05, ptr %digits, align 8, !dbg !1792
  %103 = getelementptr inbounds i8, ptr %digits, i64 8, !dbg !1792
  store i64 %rest.16, ptr %103, align 8, !dbg !1792
  br label %bb19, !dbg !1793

bb26:                                             ; preds = %bb36
  %104 = getelementptr inbounds i8, ptr %_0, i64 1, !dbg !1783
  store i8 2, ptr %104, align 1, !dbg !1783
  store i8 1, ptr %_0, align 8, !dbg !1783
  br label %bb29, !dbg !1784

bb30:                                             ; preds = %bb17, %bb29
  br label %bb31, !dbg !1684

bb14:                                             ; preds = %bb13
  %105 = load ptr, ptr %digits, align 8, !dbg !1794
  %106 = getelementptr inbounds i8, ptr %digits, i64 8, !dbg !1794
  %107 = load i64, ptr %106, align 8, !dbg !1794
  %c15 = getelementptr inbounds nuw i8, ptr %105, i64 0, !dbg !1794
  store ptr %c15, ptr %c.dbg.spill16, align 8, !dbg !1794
    #dbg_declare(ptr %c.dbg.spill16, !1593, !DIExpression(), !1794)
  %108 = load ptr, ptr %digits, align 8, !dbg !1795
  %109 = getelementptr inbounds i8, ptr %digits, i64 8, !dbg !1795
  %110 = load i64, ptr %109, align 8, !dbg !1795
  %rest.017 = getelementptr inbounds nuw i8, ptr %108, i64 1, !dbg !1795
  %rest.118 = sub i64 %110, 1, !dbg !1795
  store ptr %rest.017, ptr %rest.dbg.spill19, align 8, !dbg !1795
  %111 = getelementptr inbounds i8, ptr %rest.dbg.spill19, i64 8, !dbg !1795
  store i64 %rest.118, ptr %111, align 8, !dbg !1795
    #dbg_declare(ptr %rest.dbg.spill19, !1595, !DIExpression(), !1795)
  %_21 = load i64, ptr %result, align 8, !dbg !1796
  %_22 = zext i32 %radix to i64, !dbg !1797
  %112 = mul i64 %_21, %_22, !dbg !1798
  store i64 %112, ptr %result, align 8, !dbg !1798
  %_25 = load i8, ptr %c15, align 1, !dbg !1799
  %_24 = zext i8 %_25 to i32, !dbg !1800
; call core::char::methods::<impl char>::to_digit
  %113 = call { i32, i32 } @"_ZN4core4char7methods22_$LT$impl$u20$char$GT$8to_digit17h1e32b6ba8b6df7dbE"(i32 %_24, i32 %radix), !dbg !1801
  %114 = extractvalue { i32, i32 } %113, 0, !dbg !1801
  %115 = extractvalue { i32, i32 } %113, 1, !dbg !1801
  store i32 %114, ptr %_23, align 4, !dbg !1801
  %116 = getelementptr inbounds i8, ptr %_23, i64 4, !dbg !1801
  store i32 %115, ptr %116, align 4, !dbg !1801
  %117 = load i32, ptr %_23, align 4, !dbg !1800
  %118 = getelementptr inbounds i8, ptr %_23, i64 4, !dbg !1800
  %119 = load i32, ptr %118, align 4, !dbg !1800
  %_26 = zext i32 %117 to i64, !dbg !1800
  %120 = trunc nuw i64 %_26 to i1, !dbg !1802
  br i1 %120, label %bb18, label %bb17, !dbg !1802

bb18:                                             ; preds = %bb14
  %121 = getelementptr inbounds i8, ptr %_23, i64 4, !dbg !1803
  %x20 = load i32, ptr %121, align 4, !dbg !1803
  store i32 %x20, ptr %x.dbg.spill21, align 4, !dbg !1803
    #dbg_declare(ptr %x.dbg.spill21, !1596, !DIExpression(), !1804)
    #dbg_declare(ptr %x.dbg.spill21, !1598, !DIExpression(), !1805)
  %_28 = load i64, ptr %result, align 8, !dbg !1806
  %_29 = zext i32 %x20 to i64, !dbg !1807
  %122 = add i64 %_28, %_29, !dbg !1808
  store i64 %122, ptr %result, align 8, !dbg !1808
  store ptr %rest.017, ptr %digits, align 8, !dbg !1809
  %123 = getelementptr inbounds i8, ptr %digits, i64 8, !dbg !1809
  store i64 %rest.118, ptr %123, align 8, !dbg !1809
  br label %bb13, !dbg !1810

bb17:                                             ; preds = %bb14
  %124 = getelementptr inbounds i8, ptr %_0, i64 1, !dbg !1811
  store i8 1, ptr %124, align 1, !dbg !1811
  store i8 1, ptr %_0, align 8, !dbg !1811
  br label %bb30, !dbg !1772

bb16:                                             ; No predecessors!
  unreachable, !dbg !1677
}

; core::num::<impl core::str::traits::FromStr for usize>::from_str
; Function Attrs: inlinehint nonlazybind uwtable
define internal void @"_ZN4core3num62_$LT$impl$u20$core..str..traits..FromStr$u20$for$u20$usize$GT$8from_str17hc5ae8e52987c9f67E"(ptr sret([16 x i8]) align 8 %_0, ptr align 1 %src.0, i64 %src.1) unnamed_addr #0 !dbg !1812 {
start:
  %radix.dbg.spill = alloca [4 x i8], align 4
  %src.dbg.spill = alloca [16 x i8], align 8
  store ptr %src.0, ptr %src.dbg.spill, align 8
  %0 = getelementptr inbounds i8, ptr %src.dbg.spill, i64 8
  store i64 %src.1, ptr %0, align 8
    #dbg_declare(ptr %src.dbg.spill, !1817, !DIExpression(), !1818)
    #dbg_declare(ptr %src.dbg.spill, !1819, !DIExpression(), !1825)
    #dbg_declare(ptr %src.dbg.spill, !1827, !DIExpression(), !1834)
  store i32 10, ptr %radix.dbg.spill, align 4, !dbg !1836
    #dbg_declare(ptr %radix.dbg.spill, !1824, !DIExpression(), !1836)
; call core::num::<impl usize>::from_ascii_radix
  call void @"_ZN4core3num23_$LT$impl$u20$usize$GT$16from_ascii_radix17h93a08a45bd5dd175E"(ptr sret([16 x i8]) align 8 %_0, ptr align 1 %src.0, i64 %src.1, i32 10), !dbg !1837
  ret void, !dbg !1838
}

; core::ops::function::FnMut::call_mut
; Function Attrs: inlinehint nonlazybind uwtable
define internal zeroext i1 @_ZN4core3ops8function5FnMut8call_mut17h0d542d78c58f9382E(ptr align 1 %_1, i32 %0) unnamed_addr #0 !dbg !1839 {
start:
  %_1.dbg.spill = alloca [8 x i8], align 8
  %_2 = alloca [4 x i8], align 4
  store i32 %0, ptr %_2, align 4
  store ptr %_1, ptr %_1.dbg.spill, align 8
    #dbg_declare(ptr %_1.dbg.spill, !1848, !DIExpression(), !1856)
    #dbg_declare(ptr %_2, !1849, !DIExpression(), !1856)
  %1 = load i32, ptr %_2, align 4, !dbg !1856
; call core::char::methods::<impl char>::is_whitespace
  %_0 = call zeroext i1 @"_ZN4core4char7methods22_$LT$impl$u20$char$GT$13is_whitespace17h4dd30c6e1bae052bE"(i32 %1), !dbg !1856
  ret i1 %_0, !dbg !1856
}

; core::ops::function::FnOnce::call_once{{vtable.shim}}
; Function Attrs: inlinehint nonlazybind uwtable
define internal i32 @"_ZN4core3ops8function6FnOnce40call_once$u7b$$u7b$vtable.shim$u7d$$u7d$17h4116075843867654E"(ptr %_1) unnamed_addr #0 !dbg !1857 {
start:
  %_1.dbg.spill = alloca [8 x i8], align 8
  %_2 = alloca [0 x i8], align 1
  store ptr %_1, ptr %_1.dbg.spill, align 8
    #dbg_declare(ptr %_1.dbg.spill, !1863, !DIExpression(), !1868)
    #dbg_declare(ptr %_2, !1864, !DIExpression(), !1868)
  %0 = load ptr, ptr %_1, align 8, !dbg !1868
; call core::ops::function::FnOnce::call_once
  %_0 = call i32 @_ZN4core3ops8function6FnOnce9call_once17ha1eaa5b20a8a5f5eE(ptr %0), !dbg !1868
  ret i32 %_0, !dbg !1868
}

; core::ops::function::FnOnce::call_once
; Function Attrs: inlinehint nonlazybind uwtable
define internal void @_ZN4core3ops8function6FnOnce9call_once17h151c72d582ca06d0E(ptr %_1) unnamed_addr #0 !dbg !1869 {
start:
  %_1.dbg.spill = alloca [8 x i8], align 8
  %_2 = alloca [0 x i8], align 1
  store ptr %_1, ptr %_1.dbg.spill, align 8
    #dbg_declare(ptr %_1.dbg.spill, !1871, !DIExpression(), !1875)
    #dbg_declare(ptr %_2, !1872, !DIExpression(), !1875)
  call void %_1(), !dbg !1875
  ret void, !dbg !1875
}

; core::ops::function::FnOnce::call_once
; Function Attrs: inlinehint nonlazybind uwtable
define internal i32 @_ZN4core3ops8function6FnOnce9call_once17ha1eaa5b20a8a5f5eE(ptr %0) unnamed_addr #0 personality ptr @rust_eh_personality !dbg !1876 {
start:
  %1 = alloca [16 x i8], align 8
  %_2 = alloca [0 x i8], align 1
  %_1 = alloca [8 x i8], align 8
  store ptr %0, ptr %_1, align 8
    #dbg_declare(ptr %_1, !1880, !DIExpression(), !1882)
    #dbg_declare(ptr %_2, !1881, !DIExpression(), !1882)
; invoke std::rt::lang_start::{{closure}}
  %_0 = invoke i32 @"_ZN3std2rt10lang_start28_$u7b$$u7b$closure$u7d$$u7d$17hd6a3549c3f7fc45eE"(ptr align 8 %_1)
          to label %bb1 unwind label %cleanup, !dbg !1882

bb3:                                              ; preds = %cleanup
  %2 = load ptr, ptr %1, align 8, !dbg !1882
  %3 = getelementptr inbounds i8, ptr %1, i64 8, !dbg !1882
  %4 = load i32, ptr %3, align 8, !dbg !1882
  %5 = insertvalue { ptr, i32 } poison, ptr %2, 0, !dbg !1882
  %6 = insertvalue { ptr, i32 } %5, i32 %4, 1, !dbg !1882
  resume { ptr, i32 } %6, !dbg !1882

cleanup:                                          ; preds = %start
  %7 = landingpad { ptr, i32 }
          cleanup
  %8 = extractvalue { ptr, i32 } %7, 0
  %9 = extractvalue { ptr, i32 } %7, 1
  store ptr %8, ptr %1, align 8
  %10 = getelementptr inbounds i8, ptr %1, i64 8
  store i32 %9, ptr %10, align 8
  br label %bb3

bb1:                                              ; preds = %start
  ret i32 %_0, !dbg !1882
}

; core::ptr::drop_in_place<std::io::error::ErrorData<alloc::boxed::Box<std::io::error::Custom>>>
; Function Attrs: nonlazybind uwtable
define internal void @"_ZN4core3ptr101drop_in_place$LT$std..io..error..ErrorData$LT$alloc..boxed..Box$LT$std..io..error..Custom$GT$$GT$$GT$17h15d0fda21512c8e0E"(ptr align 8 %_1) unnamed_addr #1 !dbg !1883 {
start:
  %_1.dbg.spill = alloca [8 x i8], align 8
  store ptr %_1, ptr %_1.dbg.spill, align 8
    #dbg_declare(ptr %_1.dbg.spill, !1889, !DIExpression(), !1890)
  %0 = load i8, ptr %_1, align 8, !dbg !1890
  %_2 = zext i8 %0 to i64, !dbg !1890
  switch i64 %_2, label %bb2 [
    i64 0, label %bb1
    i64 1, label %bb1
    i64 2, label %bb1
  ], !dbg !1890

bb2:                                              ; preds = %start
  %1 = getelementptr inbounds i8, ptr %_1, i64 8, !dbg !1890
; call core::ptr::drop_in_place<alloc::boxed::Box<std::io::error::Custom>>
  call void @"_ZN4core3ptr68drop_in_place$LT$alloc..boxed..Box$LT$std..io..error..Custom$GT$$GT$17hfc1f1ac779e85eeeE"(ptr align 8 %1), !dbg !1890
  br label %bb1, !dbg !1890

bb1:                                              ; preds = %bb2, %start, %start, %start
  ret void, !dbg !1890
}

; core::ptr::drop_in_place<alloc::boxed::Box<dyn core::error::Error+core::marker::Sync+core::marker::Send>>
; Function Attrs: nonlazybind uwtable
define internal void @"_ZN4core3ptr118drop_in_place$LT$alloc..boxed..Box$LT$dyn$u20$core..error..Error$u2b$core..marker..Sync$u2b$core..marker..Send$GT$$GT$17h37382da8d9707e7fE"(ptr align 8 %_1) unnamed_addr #1 personality ptr @rust_eh_personality !dbg !1891 {
start:
  %0 = alloca [16 x i8], align 8
  %_1.dbg.spill = alloca [8 x i8], align 8
  store ptr %_1, ptr %_1.dbg.spill, align 8
    #dbg_declare(ptr %_1.dbg.spill, !1896, !DIExpression(), !1899)
  %_6.0 = load ptr, ptr %_1, align 8, !dbg !1899
  %1 = getelementptr inbounds i8, ptr %_1, i64 8, !dbg !1899
  %_6.1 = load ptr, ptr %1, align 8, !dbg !1899
  %2 = getelementptr inbounds i8, ptr %_6.1, i64 0, !dbg !1899
  %3 = load ptr, ptr %2, align 8, !dbg !1899, !invariant.load !23
  %4 = icmp ne ptr %3, null, !dbg !1899
  br i1 %4, label %is_not_null, label %bb3, !dbg !1899

is_not_null:                                      ; preds = %start
  invoke void %3(ptr %_6.0)
          to label %bb3 unwind label %cleanup, !dbg !1899

bb3:                                              ; preds = %is_not_null, %start
; call <alloc::boxed::Box<T,A> as core::ops::drop::Drop>::drop
  call void @"_ZN72_$LT$alloc..boxed..Box$LT$T$C$A$GT$$u20$as$u20$core..ops..drop..Drop$GT$4drop17ha854b50d3b406338E"(ptr align 8 %_1), !dbg !1899
  ret void, !dbg !1899

bb4:                                              ; preds = %cleanup
; invoke <alloc::boxed::Box<T,A> as core::ops::drop::Drop>::drop
  invoke void @"_ZN72_$LT$alloc..boxed..Box$LT$T$C$A$GT$$u20$as$u20$core..ops..drop..Drop$GT$4drop17ha854b50d3b406338E"(ptr align 8 %_1) #17
          to label %bb1 unwind label %terminate, !dbg !1899

cleanup:                                          ; preds = %is_not_null
  %5 = landingpad { ptr, i32 }
          cleanup
  %6 = extractvalue { ptr, i32 } %5, 0
  %7 = extractvalue { ptr, i32 } %5, 1
  store ptr %6, ptr %0, align 8
  %8 = getelementptr inbounds i8, ptr %0, i64 8
  store i32 %7, ptr %8, align 8
  br label %bb4

terminate:                                        ; preds = %bb4
  %9 = landingpad { ptr, i32 }
          filter [0 x ptr] zeroinitializer
; call core::panicking::panic_in_cleanup
  call void @_ZN4core9panicking16panic_in_cleanup17h5eff40bcc4481d72E() #18, !dbg !1899
  unreachable, !dbg !1899

bb1:                                              ; preds = %bb4
  %10 = load ptr, ptr %0, align 8, !dbg !1899
  %11 = getelementptr inbounds i8, ptr %0, i64 8, !dbg !1899
  %12 = load i32, ptr %11, align 8, !dbg !1899
  %13 = insertvalue { ptr, i32 } poison, ptr %10, 0, !dbg !1899
  %14 = insertvalue { ptr, i32 } %13, i32 %12, 1, !dbg !1899
  resume { ptr, i32 } %14, !dbg !1899
}

; core::ptr::drop_in_place<alloc::string::String>
; Function Attrs: nonlazybind uwtable
define internal void @"_ZN4core3ptr42drop_in_place$LT$alloc..string..String$GT$17h4ca3b9897f0a7bdbE"(ptr align 8 %_1) unnamed_addr #1 !dbg !1900 {
start:
  %_1.dbg.spill = alloca [8 x i8], align 8
  store ptr %_1, ptr %_1.dbg.spill, align 8
    #dbg_declare(ptr %_1.dbg.spill, !1940, !DIExpression(), !1943)
; call core::ptr::drop_in_place<alloc::vec::Vec<u8>>
  call void @"_ZN4core3ptr46drop_in_place$LT$alloc..vec..Vec$LT$u8$GT$$GT$17h73f406bf9e2ffa99E"(ptr align 8 %_1), !dbg !1943
  ret void, !dbg !1943
}

; core::ptr::drop_in_place<std::io::error::Error>
; Function Attrs: nonlazybind uwtable
define internal void @"_ZN4core3ptr42drop_in_place$LT$std..io..error..Error$GT$17haabbf6999498c076E"(ptr align 8 %_1) unnamed_addr #1 !dbg !1944 {
start:
  %_1.dbg.spill = alloca [8 x i8], align 8
  store ptr %_1, ptr %_1.dbg.spill, align 8
    #dbg_declare(ptr %_1.dbg.spill, !1949, !DIExpression(), !1952)
; call core::ptr::drop_in_place<std::io::error::repr_bitpacked::Repr>
  call void @"_ZN4core3ptr57drop_in_place$LT$std..io..error..repr_bitpacked..Repr$GT$17hb2de838b41cc3ce2E"(ptr align 8 %_1), !dbg !1952
  ret void, !dbg !1952
}

; core::ptr::drop_in_place<std::io::error::Custom>
; Function Attrs: nonlazybind uwtable
define internal void @"_ZN4core3ptr43drop_in_place$LT$std..io..error..Custom$GT$17hc1269fc02c2edab9E"(ptr align 8 %_1) unnamed_addr #1 !dbg !1953 {
start:
  %_1.dbg.spill = alloca [8 x i8], align 8
  store ptr %_1, ptr %_1.dbg.spill, align 8
    #dbg_declare(ptr %_1.dbg.spill, !1957, !DIExpression(), !1960)
; call core::ptr::drop_in_place<alloc::boxed::Box<dyn core::error::Error+core::marker::Sync+core::marker::Send>>
  call void @"_ZN4core3ptr118drop_in_place$LT$alloc..boxed..Box$LT$dyn$u20$core..error..Error$u2b$core..marker..Sync$u2b$core..marker..Send$GT$$GT$17h37382da8d9707e7fE"(ptr align 8 %_1), !dbg !1960
  ret void, !dbg !1960
}

; core::ptr::drop_in_place<alloc::vec::Vec<u8>>
; Function Attrs: nonlazybind uwtable
define internal void @"_ZN4core3ptr46drop_in_place$LT$alloc..vec..Vec$LT$u8$GT$$GT$17h73f406bf9e2ffa99E"(ptr align 8 %_1) unnamed_addr #1 personality ptr @rust_eh_personality !dbg !1961 {
start:
  %0 = alloca [16 x i8], align 8
  %_1.dbg.spill = alloca [8 x i8], align 8
  store ptr %_1, ptr %_1.dbg.spill, align 8
    #dbg_declare(ptr %_1.dbg.spill, !1966, !DIExpression(), !1969)
; invoke <alloc::vec::Vec<T,A> as core::ops::drop::Drop>::drop
  invoke void @"_ZN70_$LT$alloc..vec..Vec$LT$T$C$A$GT$$u20$as$u20$core..ops..drop..Drop$GT$4drop17h9d31ff021d90655fE"(ptr align 8 %_1)
          to label %bb4 unwind label %cleanup, !dbg !1969

bb3:                                              ; preds = %cleanup
; invoke core::ptr::drop_in_place<alloc::raw_vec::RawVec<u8>>
  invoke void @"_ZN4core3ptr53drop_in_place$LT$alloc..raw_vec..RawVec$LT$u8$GT$$GT$17h8911ce3b6d260c8aE"(ptr align 8 %_1) #17
          to label %bb1 unwind label %terminate, !dbg !1969

cleanup:                                          ; preds = %start
  %1 = landingpad { ptr, i32 }
          cleanup
  %2 = extractvalue { ptr, i32 } %1, 0
  %3 = extractvalue { ptr, i32 } %1, 1
  store ptr %2, ptr %0, align 8
  %4 = getelementptr inbounds i8, ptr %0, i64 8
  store i32 %3, ptr %4, align 8
  br label %bb3

bb4:                                              ; preds = %start
; call core::ptr::drop_in_place<alloc::raw_vec::RawVec<u8>>
  call void @"_ZN4core3ptr53drop_in_place$LT$alloc..raw_vec..RawVec$LT$u8$GT$$GT$17h8911ce3b6d260c8aE"(ptr align 8 %_1), !dbg !1969
  ret void, !dbg !1969

terminate:                                        ; preds = %bb3
  %5 = landingpad { ptr, i32 }
          filter [0 x ptr] zeroinitializer
; call core::panicking::panic_in_cleanup
  call void @_ZN4core9panicking16panic_in_cleanup17h5eff40bcc4481d72E() #18, !dbg !1969
  unreachable, !dbg !1969

bb1:                                              ; preds = %bb3
  %6 = load ptr, ptr %0, align 8, !dbg !1969
  %7 = getelementptr inbounds i8, ptr %0, i64 8, !dbg !1969
  %8 = load i32, ptr %7, align 8, !dbg !1969
  %9 = insertvalue { ptr, i32 } poison, ptr %6, 0, !dbg !1969
  %10 = insertvalue { ptr, i32 } %9, i32 %8, 1, !dbg !1969
  resume { ptr, i32 } %10, !dbg !1969
}

; core::ptr::drop_in_place<alloc::raw_vec::RawVec<u8>>
; Function Attrs: nonlazybind uwtable
define internal void @"_ZN4core3ptr53drop_in_place$LT$alloc..raw_vec..RawVec$LT$u8$GT$$GT$17h8911ce3b6d260c8aE"(ptr align 8 %_1) unnamed_addr #1 !dbg !1970 {
start:
  %_1.dbg.spill = alloca [8 x i8], align 8
  store ptr %_1, ptr %_1.dbg.spill, align 8
    #dbg_declare(ptr %_1.dbg.spill, !1975, !DIExpression(), !1978)
; call <alloc::raw_vec::RawVec<T,A> as core::ops::drop::Drop>::drop
  call void @"_ZN77_$LT$alloc..raw_vec..RawVec$LT$T$C$A$GT$$u20$as$u20$core..ops..drop..Drop$GT$4drop17h8d336a5866d2c9c3E"(ptr align 8 %_1), !dbg !1978
  ret void, !dbg !1978
}

; core::ptr::drop_in_place<std::io::error::repr_bitpacked::Repr>
; Function Attrs: nonlazybind uwtable
define internal void @"_ZN4core3ptr57drop_in_place$LT$std..io..error..repr_bitpacked..Repr$GT$17hb2de838b41cc3ce2E"(ptr align 8 %_1) unnamed_addr #1 !dbg !1979 {
start:
  %_1.dbg.spill = alloca [8 x i8], align 8
  store ptr %_1, ptr %_1.dbg.spill, align 8
    #dbg_declare(ptr %_1.dbg.spill, !1984, !DIExpression(), !1987)
; call <std::io::error::repr_bitpacked::Repr as core::ops::drop::Drop>::drop
  call void @"_ZN78_$LT$std..io..error..repr_bitpacked..Repr$u20$as$u20$core..ops..drop..Drop$GT$4drop17h15d82583eeb8a52dE"(ptr align 8 %_1), !dbg !1987
  ret void, !dbg !1987
}

; core::ptr::drop_in_place<alloc::boxed::Box<std::io::error::Custom>>
; Function Attrs: nonlazybind uwtable
define internal void @"_ZN4core3ptr68drop_in_place$LT$alloc..boxed..Box$LT$std..io..error..Custom$GT$$GT$17hfc1f1ac779e85eeeE"(ptr align 8 %_1) unnamed_addr #1 personality ptr @rust_eh_personality !dbg !1988 {
start:
  %0 = alloca [16 x i8], align 8
  %_1.dbg.spill = alloca [8 x i8], align 8
  store ptr %_1, ptr %_1.dbg.spill, align 8
    #dbg_declare(ptr %_1.dbg.spill, !1993, !DIExpression(), !1996)
  %_6 = load ptr, ptr %_1, align 8, !dbg !1996
; invoke core::ptr::drop_in_place<std::io::error::Custom>
  invoke void @"_ZN4core3ptr43drop_in_place$LT$std..io..error..Custom$GT$17hc1269fc02c2edab9E"(ptr align 8 %_6)
          to label %bb3 unwind label %cleanup, !dbg !1996

bb4:                                              ; preds = %cleanup
; invoke <alloc::boxed::Box<T,A> as core::ops::drop::Drop>::drop
  invoke void @"_ZN72_$LT$alloc..boxed..Box$LT$T$C$A$GT$$u20$as$u20$core..ops..drop..Drop$GT$4drop17haa8e3e3772770344E"(ptr align 8 %_1) #17
          to label %bb1 unwind label %terminate, !dbg !1996

cleanup:                                          ; preds = %start
  %1 = landingpad { ptr, i32 }
          cleanup
  %2 = extractvalue { ptr, i32 } %1, 0
  %3 = extractvalue { ptr, i32 } %1, 1
  store ptr %2, ptr %0, align 8
  %4 = getelementptr inbounds i8, ptr %0, i64 8
  store i32 %3, ptr %4, align 8
  br label %bb4

bb3:                                              ; preds = %start
; call <alloc::boxed::Box<T,A> as core::ops::drop::Drop>::drop
  call void @"_ZN72_$LT$alloc..boxed..Box$LT$T$C$A$GT$$u20$as$u20$core..ops..drop..Drop$GT$4drop17haa8e3e3772770344E"(ptr align 8 %_1), !dbg !1996
  ret void, !dbg !1996

terminate:                                        ; preds = %bb4
  %5 = landingpad { ptr, i32 }
          filter [0 x ptr] zeroinitializer
; call core::panicking::panic_in_cleanup
  call void @_ZN4core9panicking16panic_in_cleanup17h5eff40bcc4481d72E() #18, !dbg !1996
  unreachable, !dbg !1996

bb1:                                              ; preds = %bb4
  %6 = load ptr, ptr %0, align 8, !dbg !1996
  %7 = getelementptr inbounds i8, ptr %0, i64 8, !dbg !1996
  %8 = load i32, ptr %7, align 8, !dbg !1996
  %9 = insertvalue { ptr, i32 } poison, ptr %6, 0, !dbg !1996
  %10 = insertvalue { ptr, i32 } %9, i32 %8, 1, !dbg !1996
  resume { ptr, i32 } %10, !dbg !1996
}

; core::ptr::non_null::NonNull<T>::new_unchecked::precondition_check
; Function Attrs: inlinehint nounwind nonlazybind uwtable
define internal void @"_ZN4core3ptr8non_null16NonNull$LT$T$GT$13new_unchecked18precondition_check17ha29951ea167855afE"(ptr %ptr, ptr align 8 %0) unnamed_addr #4 !dbg !1997 {
start:
  %pieces.dbg.spill = alloca [8 x i8], align 8
  %msg.dbg.spill = alloca [16 x i8], align 8
  %ptr.dbg.spill = alloca [8 x i8], align 8
  %_5 = alloca [16 x i8], align 8
  %_3 = alloca [48 x i8], align 8
  store ptr %ptr, ptr %ptr.dbg.spill, align 8
    #dbg_declare(ptr %ptr.dbg.spill, !2003, !DIExpression(), !2006)
    #dbg_declare(ptr %ptr.dbg.spill, !2007, !DIExpression(), !2012)
  store ptr @alloc_560a59ed819b9d9a5841f6e731c4c8e5, ptr %msg.dbg.spill, align 8, !dbg !2015
  %1 = getelementptr inbounds i8, ptr %msg.dbg.spill, i64 8, !dbg !2015
  store i64 210, ptr %1, align 8, !dbg !2015
    #dbg_declare(ptr %msg.dbg.spill, !2004, !DIExpression(), !2015)
  %_6 = ptrtoint ptr %ptr to i64, !dbg !2016
  %2 = icmp eq i64 %_6, 0, !dbg !2035
  br i1 %2, label %bb1, label %bb2, !dbg !2035

bb1:                                              ; preds = %start
  %3 = getelementptr inbounds nuw { ptr, i64 }, ptr %_5, i64 0, !dbg !2036
  store ptr @alloc_560a59ed819b9d9a5841f6e731c4c8e5, ptr %3, align 8, !dbg !2036
  %4 = getelementptr inbounds i8, ptr %3, i64 8, !dbg !2036
  store i64 210, ptr %4, align 8, !dbg !2036
  store ptr %_5, ptr %pieces.dbg.spill, align 8, !dbg !2037
    #dbg_declare(ptr %pieces.dbg.spill, !2038, !DIExpression(), !2041)
  store ptr %_5, ptr %_3, align 8, !dbg !2043
  %5 = getelementptr inbounds i8, ptr %_3, i64 8, !dbg !2043
  store i64 1, ptr %5, align 8, !dbg !2043
  %6 = load ptr, ptr @anon.17a64ccdb0dd3b2223636ea1105fd72b.1, align 8, !dbg !2043
  %7 = load i64, ptr getelementptr inbounds (i8, ptr @anon.17a64ccdb0dd3b2223636ea1105fd72b.1, i64 8), align 8, !dbg !2043
  %8 = getelementptr inbounds i8, ptr %_3, i64 32, !dbg !2043
  store ptr %6, ptr %8, align 8, !dbg !2043
  %9 = getelementptr inbounds i8, ptr %8, i64 8, !dbg !2043
  store i64 %7, ptr %9, align 8, !dbg !2043
  %10 = getelementptr inbounds i8, ptr %_3, i64 16, !dbg !2043
  store ptr inttoptr (i64 8 to ptr), ptr %10, align 8, !dbg !2043
  %11 = getelementptr inbounds i8, ptr %10, i64 8, !dbg !2043
  store i64 0, ptr %11, align 8, !dbg !2043
; call core::panicking::panic_nounwind_fmt
  call void @_ZN4core9panicking18panic_nounwind_fmt17h622822847ebd61beE(ptr align 8 %_3, i1 zeroext false, ptr align 8 %0) #16, !dbg !2044
  unreachable, !dbg !2044

bb2:                                              ; preds = %start
  ret void, !dbg !2045
}

; core::ptr::non_null::NonNull<T>::offset_from_unsigned
; Function Attrs: inlinehint nonlazybind uwtable
define internal i64 @"_ZN4core3ptr8non_null16NonNull$LT$T$GT$20offset_from_unsigned17hda8e6fe9f99a2b63E"(ptr %self, ptr %subtracted) unnamed_addr #0 !dbg !2046 {
start:
  %0 = alloca [8 x i8], align 8
  %pointee_size.dbg.spill = alloca [8 x i8], align 8
  %self.dbg.spill2 = alloca [8 x i8], align 8
  %origin.dbg.spill = alloca [8 x i8], align 8
  %self.dbg.spill1 = alloca [8 x i8], align 8
  %subtracted.dbg.spill = alloca [8 x i8], align 8
  %self.dbg.spill = alloca [8 x i8], align 8
  store ptr %self, ptr %self.dbg.spill, align 8
    #dbg_declare(ptr %self.dbg.spill, !2051, !DIExpression(), !2053)
    #dbg_declare(ptr %self.dbg.spill, !2054, !DIExpression(), !2057)
  store ptr %subtracted, ptr %subtracted.dbg.spill, align 8
    #dbg_declare(ptr %subtracted.dbg.spill, !2052, !DIExpression(), !2059)
    #dbg_declare(ptr %subtracted.dbg.spill, !2054, !DIExpression(), !2060)
  store ptr %self, ptr %self.dbg.spill1, align 8, !dbg !2062
    #dbg_declare(ptr %self.dbg.spill1, !2063, !DIExpression(), !2069)
  store ptr %subtracted, ptr %origin.dbg.spill, align 8, !dbg !2071
    #dbg_declare(ptr %origin.dbg.spill, !2068, !DIExpression(), !2072)
    #dbg_declare(ptr %origin.dbg.spill, !2073, !DIExpression(), !2081)
  store ptr %self, ptr %self.dbg.spill2, align 8, !dbg !2083
    #dbg_declare(ptr %self.dbg.spill2, !2078, !DIExpression(), !2084)
  br label %bb2, !dbg !2085

bb2:                                              ; preds = %start
; call core::ptr::const_ptr::<impl *const T>::offset_from_unsigned::precondition_check
  call void @"_ZN4core3ptr9const_ptr33_$LT$impl$u20$$BP$const$u20$T$GT$20offset_from_unsigned18precondition_check17h3b2188b32e477118E"(ptr %self, ptr %subtracted, ptr align 8 @alloc_f8be598209e2f834cf2d2b9cc4a8e7e5) #14, !dbg !2087
  br label %bb4, !dbg !2088

bb4:                                              ; preds = %bb2
  store i64 1, ptr %pointee_size.dbg.spill, align 8, !dbg !2089
    #dbg_declare(ptr %pointee_size.dbg.spill, !2079, !DIExpression(), !2096)
  br label %bb5, !dbg !2097

bb5:                                              ; preds = %bb4
  br label %bb6, !dbg !2098

bb6:                                              ; preds = %bb5
  %1 = ptrtoint ptr %self to i64, !dbg !2099
  %2 = ptrtoint ptr %subtracted to i64, !dbg !2099
  %3 = sub nuw i64 %1, %2, !dbg !2099
  %4 = udiv exact i64 %3, 1, !dbg !2099
  store i64 %4, ptr %0, align 8, !dbg !2099
  %_0 = load i64, ptr %0, align 8, !dbg !2099
  ret i64 %_0, !dbg !2100

bb7:                                              ; No predecessors!
; call core::panicking::panic
  call void @_ZN4core9panicking5panic17ha264d2bb233f2b69E(ptr align 1 @alloc_ec595fc0e82ef92fc59bd74f68296eae, i64 73, ptr align 8 @alloc_f8be598209e2f834cf2d2b9cc4a8e7e5) #15, !dbg !2101
  unreachable, !dbg !2101
}

; core::ptr::drop_in_place<dyn core::error::Error+core::marker::Sync+core::marker::Send>
; Function Attrs: nonlazybind uwtable
define internal void @"_ZN4core3ptr93drop_in_place$LT$dyn$u20$core..error..Error$u2b$core..marker..Sync$u2b$core..marker..Send$GT$17hf38da1faa8c2ea1fE"(ptr align 1 %_1.0, ptr align 8 %_1.1) unnamed_addr #1 !dbg !2102 {
start:
  %_1.dbg.spill = alloca [16 x i8], align 8
  store ptr %_1.0, ptr %_1.dbg.spill, align 8
  %0 = getelementptr inbounds i8, ptr %_1.dbg.spill, i64 8
  store ptr %_1.1, ptr %0, align 8
    #dbg_declare(ptr %_1.dbg.spill, !2110, !DIExpression(), !2113)
  %1 = getelementptr inbounds i8, ptr %_1.1, i64 0, !dbg !2113
  %2 = load ptr, ptr %1, align 8, !dbg !2113, !invariant.load !23
  %3 = icmp ne ptr %2, null, !dbg !2113
  br i1 %3, label %is_not_null, label %bb1, !dbg !2113

is_not_null:                                      ; preds = %start
  call void %2(ptr %_1.0), !dbg !2113
  br label %bb1, !dbg !2113

bb1:                                              ; preds = %is_not_null, %start
  ret void, !dbg !2113
}

; core::ptr::const_ptr::<impl *const T>::offset_from_unsigned::precondition_check
; Function Attrs: inlinehint nounwind nonlazybind uwtable
define internal void @"_ZN4core3ptr9const_ptr33_$LT$impl$u20$$BP$const$u20$T$GT$20offset_from_unsigned18precondition_check17h3b2188b32e477118E"(ptr %this, ptr %origin, ptr align 8 %0) unnamed_addr #4 !dbg !2114 {
start:
  %pieces.dbg.spill = alloca [8 x i8], align 8
  %msg.dbg.spill = alloca [16 x i8], align 8
  %origin.dbg.spill = alloca [8 x i8], align 8
  %this.dbg.spill = alloca [8 x i8], align 8
  %_7 = alloca [16 x i8], align 8
  %_5 = alloca [48 x i8], align 8
  store ptr %this, ptr %this.dbg.spill, align 8
    #dbg_declare(ptr %this.dbg.spill, !2119, !DIExpression(), !2123)
    #dbg_declare(ptr %this.dbg.spill, !2124, !DIExpression(), !2130)
  store ptr %origin, ptr %origin.dbg.spill, align 8
    #dbg_declare(ptr %origin.dbg.spill, !2120, !DIExpression(), !2123)
    #dbg_declare(ptr %origin.dbg.spill, !2129, !DIExpression(), !2133)
  store ptr @alloc_de4e626d456b04760e72bc785ed7e52a, ptr %msg.dbg.spill, align 8, !dbg !2134
  %1 = getelementptr inbounds i8, ptr %msg.dbg.spill, i64 8, !dbg !2134
  store i64 201, ptr %1, align 8, !dbg !2134
    #dbg_declare(ptr %msg.dbg.spill, !2121, !DIExpression(), !2134)
  %_3 = icmp uge ptr %this, %origin, !dbg !2135
  br i1 %_3, label %bb1, label %bb2, !dbg !2131

bb2:                                              ; preds = %start
  %2 = getelementptr inbounds nuw { ptr, i64 }, ptr %_7, i64 0, !dbg !2141
  store ptr @alloc_de4e626d456b04760e72bc785ed7e52a, ptr %2, align 8, !dbg !2141
  %3 = getelementptr inbounds i8, ptr %2, i64 8, !dbg !2141
  store i64 201, ptr %3, align 8, !dbg !2141
  store ptr %_7, ptr %pieces.dbg.spill, align 8, !dbg !2142
    #dbg_declare(ptr %pieces.dbg.spill, !2143, !DIExpression(), !2146)
  store ptr %_7, ptr %_5, align 8, !dbg !2148
  %4 = getelementptr inbounds i8, ptr %_5, i64 8, !dbg !2148
  store i64 1, ptr %4, align 8, !dbg !2148
  %5 = load ptr, ptr @anon.17a64ccdb0dd3b2223636ea1105fd72b.1, align 8, !dbg !2148
  %6 = load i64, ptr getelementptr inbounds (i8, ptr @anon.17a64ccdb0dd3b2223636ea1105fd72b.1, i64 8), align 8, !dbg !2148
  %7 = getelementptr inbounds i8, ptr %_5, i64 32, !dbg !2148
  store ptr %5, ptr %7, align 8, !dbg !2148
  %8 = getelementptr inbounds i8, ptr %7, i64 8, !dbg !2148
  store i64 %6, ptr %8, align 8, !dbg !2148
  %9 = getelementptr inbounds i8, ptr %_5, i64 16, !dbg !2148
  store ptr inttoptr (i64 8 to ptr), ptr %9, align 8, !dbg !2148
  %10 = getelementptr inbounds i8, ptr %9, i64 8, !dbg !2148
  store i64 0, ptr %10, align 8, !dbg !2148
; call core::panicking::panic_nounwind_fmt
  call void @_ZN4core9panicking18panic_nounwind_fmt17h622822847ebd61beE(ptr align 8 %_5, i1 zeroext false, ptr align 8 %0) #16, !dbg !2149
  unreachable, !dbg !2149

bb1:                                              ; preds = %start
  ret void, !dbg !2150
}

; core::str::validations::next_code_point
; Function Attrs: inlinehint nonlazybind uwtable
define internal { i32, i32 } @_ZN4core3str11validations15next_code_point17hbc038c8a07ce5452E(ptr align 8 %bytes) unnamed_addr #0 !dbg !2151 {
start:
  %w.dbg.spill = alloca [1 x i8], align 1
  %val.dbg.spill10 = alloca [8 x i8], align 8
  %y_z.dbg.spill = alloca [4 x i8], align 4
  %ch.dbg.spill = alloca [4 x i8], align 4
  %z.dbg.spill = alloca [1 x i8], align 1
  %val.dbg.spill7 = alloca [8 x i8], align 8
  %y.dbg.spill = alloca [1 x i8], align 1
  %val.dbg.spill5 = alloca [8 x i8], align 8
  %init.dbg.spill = alloca [4 x i8], align 4
  %x.dbg.spill = alloca [1 x i8], align 1
  %val.dbg.spill = alloca [8 x i8], align 8
  %v.dbg.spill = alloca [8 x i8], align 8
  %width.dbg.spill = alloca [4 x i8], align 4
  %residual.dbg.spill = alloca [0 x i8], align 1
  %bytes.dbg.spill = alloca [8 x i8], align 8
  %self3 = alloca [8 x i8], align 8
  %self2 = alloca [8 x i8], align 8
  %ch = alloca [4 x i8], align 4
  %self1 = alloca [8 x i8], align 8
  %self = alloca [8 x i8], align 8
  %_3 = alloca [8 x i8], align 8
  %_0 = alloca [8 x i8], align 4
  store ptr %bytes, ptr %bytes.dbg.spill, align 8
    #dbg_declare(ptr %bytes.dbg.spill, !2157, !DIExpression(), !2194)
    #dbg_declare(ptr %self, !2195, !DIExpression(), !2220)
    #dbg_declare(ptr %self1, !2222, !DIExpression(), !2234)
    #dbg_declare(ptr %ch, !2184, !DIExpression(), !2236)
    #dbg_declare(ptr %self2, !2222, !DIExpression(), !2237)
    #dbg_declare(ptr %self3, !2222, !DIExpression(), !2239)
    #dbg_declare(ptr %residual.dbg.spill, !2160, !DIExpression(), !2241)
  store i32 2, ptr %width.dbg.spill, align 4, !dbg !2242
    #dbg_declare(ptr %width.dbg.spill, !2248, !DIExpression(), !2242)
; call <core::slice::iter::Iter<T> as core::iter::traits::iterator::Iterator>::next
  %0 = call align 1 ptr @"_ZN91_$LT$core..slice..iter..Iter$LT$T$GT$$u20$as$u20$core..iter..traits..iterator..Iterator$GT$4next17h15ba6c7b628e237fE"(ptr align 8 %bytes), !dbg !2250
  store ptr %0, ptr %self, align 8, !dbg !2250
  %1 = load ptr, ptr %self, align 8, !dbg !2251
  %2 = ptrtoint ptr %1 to i64, !dbg !2251
  %3 = icmp eq i64 %2, 0, !dbg !2251
  %_29 = select i1 %3, i64 0, i64 1, !dbg !2251
  %4 = trunc nuw i64 %_29 to i1, !dbg !2252
  br i1 %4, label %bb14, label %bb13, !dbg !2252

bb14:                                             ; preds = %start
  %v = load ptr, ptr %self, align 8, !dbg !2253
  store ptr %v, ptr %v.dbg.spill, align 8, !dbg !2253
    #dbg_declare(ptr %v.dbg.spill, !2218, !DIExpression(), !2254)
  store ptr %v, ptr %_3, align 8, !dbg !2255
  %val = load ptr, ptr %_3, align 8, !dbg !2221
  store ptr %val, ptr %val.dbg.spill, align 8, !dbg !2221
    #dbg_declare(ptr %val.dbg.spill, !2178, !DIExpression(), !2256)
  %x = load i8, ptr %val, align 1, !dbg !2257
  store i8 %x, ptr %x.dbg.spill, align 1, !dbg !2257
    #dbg_declare(ptr %x.dbg.spill, !2158, !DIExpression(), !2258)
    #dbg_declare(ptr %x.dbg.spill, !2247, !DIExpression(), !2259)
  %_6 = icmp ult i8 %x, -128, !dbg !2260
  br i1 %_6, label %bb3, label %bb4, !dbg !2260

bb13:                                             ; preds = %start
  %5 = load i32, ptr @anon.17a64ccdb0dd3b2223636ea1105fd72b.2, align 4, !dbg !2261
  %6 = load i32, ptr getelementptr inbounds (i8, ptr @anon.17a64ccdb0dd3b2223636ea1105fd72b.2, i64 4), align 4, !dbg !2261
  store i32 %5, ptr %_0, align 4, !dbg !2261
  %7 = getelementptr inbounds i8, ptr %_0, i64 4, !dbg !2261
  store i32 %6, ptr %7, align 4, !dbg !2261
  br label %bb12, !dbg !2268

bb12:                                             ; preds = %bb3, %bb11, %bb13
  %8 = load i32, ptr %_0, align 4, !dbg !2270
  %9 = getelementptr inbounds i8, ptr %_0, i64 4, !dbg !2270
  %10 = load i32, ptr %9, align 4, !dbg !2270
  %11 = insertvalue { i32, i32 } poison, i32 %8, 0, !dbg !2270
  %12 = insertvalue { i32, i32 } %11, i32 %10, 1, !dbg !2270
  ret { i32, i32 } %12, !dbg !2270

bb4:                                              ; preds = %bb14
  %_31 = and i8 %x, 31, !dbg !2271
  %init = zext i8 %_31 to i32, !dbg !2271
  store i32 %init, ptr %init.dbg.spill, align 4, !dbg !2271
    #dbg_declare(ptr %init.dbg.spill, !2180, !DIExpression(), !2272)
    #dbg_declare(ptr %init.dbg.spill, !2273, !DIExpression(), !2279)
; call <core::slice::iter::Iter<T> as core::iter::traits::iterator::Iterator>::next
  %13 = call align 1 ptr @"_ZN91_$LT$core..slice..iter..Iter$LT$T$GT$$u20$as$u20$core..iter..traits..iterator..Iterator$GT$4next17h15ba6c7b628e237fE"(ptr align 8 %bytes), !dbg !2281
  store ptr %13, ptr %self1, align 8, !dbg !2281
  %14 = load ptr, ptr %self1, align 8, !dbg !2282
  %15 = ptrtoint ptr %14 to i64, !dbg !2282
  %16 = icmp eq i64 %15, 0, !dbg !2282
  %_32 = select i1 %16, i64 0, i64 1, !dbg !2282
  %17 = trunc nuw i64 %_32 to i1, !dbg !2283
  br i1 %17, label %bb16, label %bb15, !dbg !2283

bb3:                                              ; preds = %bb14
  %_7 = zext i8 %x to i32, !dbg !2284
  %18 = getelementptr inbounds i8, ptr %_0, i64 4, !dbg !2285
  store i32 %_7, ptr %18, align 4, !dbg !2285
  store i32 1, ptr %_0, align 4, !dbg !2285
  br label %bb12, !dbg !2286

bb16:                                             ; preds = %bb4
  %val4 = load ptr, ptr %self1, align 8, !dbg !2288
  store ptr %val4, ptr %val.dbg.spill5, align 8, !dbg !2288
    #dbg_declare(ptr %val.dbg.spill5, !2228, !DIExpression(), !2289)
  %y = load i8, ptr %val4, align 1, !dbg !2290
  store i8 %y, ptr %y.dbg.spill, align 1, !dbg !2290
    #dbg_declare(ptr %y.dbg.spill, !2182, !DIExpression(), !2291)
    #dbg_declare(ptr %y.dbg.spill, !2278, !DIExpression(), !2292)
  %_35 = shl i32 %init, 6, !dbg !2293
  %_37 = and i8 %y, 63, !dbg !2294
  %_36 = zext i8 %_37 to i32, !dbg !2294
  %19 = or i32 %_35, %_36, !dbg !2293
  store i32 %19, ptr %ch, align 4, !dbg !2293
  %_13 = icmp uge i8 %x, -32, !dbg !2295
  br i1 %_13, label %bb6, label %bb11, !dbg !2295

bb15:                                             ; preds = %bb4
; call core::hint::unreachable_unchecked::precondition_check
  call void @_ZN4core4hint21unreachable_unchecked18precondition_check17h506f38bd5a2702beE(ptr align 8 @alloc_529b6025d83b9ebb0e57fdfa1395d046) #14, !dbg !2296
  br label %bb2, !dbg !2296

bb2:                                              ; preds = %bb19, %bb17, %bb15
  unreachable, !dbg !2268

bb11:                                             ; preds = %bb10, %bb16
  %_28 = load i32, ptr %ch, align 4, !dbg !2300
  %20 = getelementptr inbounds i8, ptr %_0, i64 4, !dbg !2301
  store i32 %_28, ptr %20, align 4, !dbg !2301
  store i32 1, ptr %_0, align 4, !dbg !2301
  br label %bb12, !dbg !2270

bb6:                                              ; preds = %bb16
; call <core::slice::iter::Iter<T> as core::iter::traits::iterator::Iterator>::next
  %21 = call align 1 ptr @"_ZN91_$LT$core..slice..iter..Iter$LT$T$GT$$u20$as$u20$core..iter..traits..iterator..Iterator$GT$4next17h15ba6c7b628e237fE"(ptr align 8 %bytes), !dbg !2302
  store ptr %21, ptr %self2, align 8, !dbg !2302
  %22 = load ptr, ptr %self2, align 8, !dbg !2303
  %23 = ptrtoint ptr %22 to i64, !dbg !2303
  %24 = icmp eq i64 %23, 0, !dbg !2303
  %_38 = select i1 %24, i64 0, i64 1, !dbg !2303
  %25 = trunc nuw i64 %_38 to i1, !dbg !2304
  br i1 %25, label %bb18, label %bb17, !dbg !2304

bb18:                                             ; preds = %bb6
  %val6 = load ptr, ptr %self2, align 8, !dbg !2305
  store ptr %val6, ptr %val.dbg.spill7, align 8, !dbg !2305
    #dbg_declare(ptr %val.dbg.spill7, !2230, !DIExpression(), !2306)
  %z = load i8, ptr %val6, align 1, !dbg !2307
  store i8 %z, ptr %z.dbg.spill, align 1, !dbg !2307
    #dbg_declare(ptr %z.dbg.spill, !2186, !DIExpression(), !2308)
    #dbg_declare(ptr %z.dbg.spill, !2278, !DIExpression(), !2309)
  %_19 = and i8 %y, 63, !dbg !2311
  %ch8 = zext i8 %_19 to i32, !dbg !2311
  store i32 %ch8, ptr %ch.dbg.spill, align 4, !dbg !2311
    #dbg_declare(ptr %ch.dbg.spill, !2273, !DIExpression(), !2312)
  %_41 = shl i32 %ch8, 6, !dbg !2313
  %_43 = and i8 %z, 63, !dbg !2314
  %_42 = zext i8 %_43 to i32, !dbg !2314
  %y_z = or i32 %_41, %_42, !dbg !2313
  store i32 %y_z, ptr %y_z.dbg.spill, align 4, !dbg !2313
    #dbg_declare(ptr %y_z.dbg.spill, !2188, !DIExpression(), !2315)
    #dbg_declare(ptr %y_z.dbg.spill, !2273, !DIExpression(), !2316)
  %_20 = shl i32 %init, 12, !dbg !2318
  %26 = or i32 %_20, %y_z, !dbg !2319
  store i32 %26, ptr %ch, align 4, !dbg !2319
  %_21 = icmp uge i8 %x, -16, !dbg !2320
  br i1 %_21, label %bb8, label %bb10, !dbg !2320

bb17:                                             ; preds = %bb6
; call core::hint::unreachable_unchecked::precondition_check
  call void @_ZN4core4hint21unreachable_unchecked18precondition_check17h506f38bd5a2702beE(ptr align 8 @alloc_7f873a0e7c47e0ef63cb2a1c0771ddcd) #14, !dbg !2321
  br label %bb2, !dbg !2321

bb10:                                             ; preds = %bb20, %bb18
  br label %bb11, !dbg !2324

bb8:                                              ; preds = %bb18
; call <core::slice::iter::Iter<T> as core::iter::traits::iterator::Iterator>::next
  %27 = call align 1 ptr @"_ZN91_$LT$core..slice..iter..Iter$LT$T$GT$$u20$as$u20$core..iter..traits..iterator..Iterator$GT$4next17h15ba6c7b628e237fE"(ptr align 8 %bytes), !dbg !2325
  store ptr %27, ptr %self3, align 8, !dbg !2325
  %28 = load ptr, ptr %self3, align 8, !dbg !2326
  %29 = ptrtoint ptr %28 to i64, !dbg !2326
  %30 = icmp eq i64 %29, 0, !dbg !2326
  %_44 = select i1 %30, i64 0, i64 1, !dbg !2326
  %31 = trunc nuw i64 %_44 to i1, !dbg !2327
  br i1 %31, label %bb20, label %bb19, !dbg !2327

bb20:                                             ; preds = %bb8
  %val9 = load ptr, ptr %self3, align 8, !dbg !2328
  store ptr %val9, ptr %val.dbg.spill10, align 8, !dbg !2328
    #dbg_declare(ptr %val.dbg.spill10, !2232, !DIExpression(), !2329)
  %w = load i8, ptr %val9, align 1, !dbg !2330
  store i8 %w, ptr %w.dbg.spill, align 1, !dbg !2330
    #dbg_declare(ptr %w.dbg.spill, !2190, !DIExpression(), !2331)
    #dbg_declare(ptr %w.dbg.spill, !2278, !DIExpression(), !2332)
  %_26 = and i32 %init, 7, !dbg !2333
  %_25 = shl i32 %_26, 18, !dbg !2333
  %_47 = shl i32 %y_z, 6, !dbg !2334
  %_49 = and i8 %w, 63, !dbg !2335
  %_48 = zext i8 %_49 to i32, !dbg !2335
  %_27 = or i32 %_47, %_48, !dbg !2334
  %32 = or i32 %_25, %_27, !dbg !2336
  store i32 %32, ptr %ch, align 4, !dbg !2336
  br label %bb10, !dbg !2337

bb19:                                             ; preds = %bb8
; call core::hint::unreachable_unchecked::precondition_check
  call void @_ZN4core4hint21unreachable_unchecked18precondition_check17h506f38bd5a2702beE(ptr align 8 @alloc_5b1ece176c586484ef2b256193cf7173) #14, !dbg !2338
  br label %bb2, !dbg !2338
}

; core::str::validations::next_code_point_reverse
; Function Attrs: inlinehint nonlazybind uwtable
define internal { i32, i32 } @_ZN4core3str11validations23next_code_point_reverse17h615b9ae40e33c2eaE(ptr align 8 %bytes) unnamed_addr #0 !dbg !2341 {
start:
  %next_byte.dbg.spill = alloca [1 x i8], align 1
  %ch.dbg.spill16 = alloca [4 x i8], align 4
  %ch.dbg.spill14 = alloca [4 x i8], align 4
  %ch.dbg.spill = alloca [4 x i8], align 4
  %x.dbg.spill = alloca [1 x i8], align 1
  %val.dbg.spill11 = alloca [8 x i8], align 8
  %y.dbg.spill = alloca [1 x i8], align 1
  %val.dbg.spill9 = alloca [8 x i8], align 8
  %z.dbg.spill = alloca [1 x i8], align 1
  %val.dbg.spill7 = alloca [8 x i8], align 8
  %w.dbg.spill = alloca [1 x i8], align 1
  %val.dbg.spill = alloca [8 x i8], align 8
  %v.dbg.spill = alloca [8 x i8], align 8
  %width.dbg.spill5 = alloca [4 x i8], align 4
  %width.dbg.spill4 = alloca [4 x i8], align 4
  %width.dbg.spill = alloca [4 x i8], align 4
  %residual.dbg.spill = alloca [0 x i8], align 1
  %bytes.dbg.spill = alloca [8 x i8], align 8
  %self3 = alloca [8 x i8], align 8
  %self2 = alloca [8 x i8], align 8
  %self1 = alloca [8 x i8], align 8
  %ch = alloca [4 x i8], align 4
  %self = alloca [8 x i8], align 8
  %_2 = alloca [8 x i8], align 8
  %_0 = alloca [8 x i8], align 4
  store ptr %bytes, ptr %bytes.dbg.spill, align 8
    #dbg_declare(ptr %bytes.dbg.spill, !2343, !DIExpression(), !2363)
    #dbg_declare(ptr %self, !2364, !DIExpression(), !2369)
    #dbg_declare(ptr %ch, !2355, !DIExpression(), !2371)
    #dbg_declare(ptr %self1, !2372, !DIExpression(), !2381)
    #dbg_declare(ptr %self2, !2372, !DIExpression(), !2383)
    #dbg_declare(ptr %self3, !2372, !DIExpression(), !2385)
    #dbg_declare(ptr %residual.dbg.spill, !2346, !DIExpression(), !2387)
  store i32 2, ptr %width.dbg.spill, align 4, !dbg !2388
    #dbg_declare(ptr %width.dbg.spill, !2392, !DIExpression(), !2388)
  store i32 3, ptr %width.dbg.spill4, align 4, !dbg !2394
    #dbg_declare(ptr %width.dbg.spill4, !2392, !DIExpression(), !2394)
  store i32 4, ptr %width.dbg.spill5, align 4, !dbg !2396
    #dbg_declare(ptr %width.dbg.spill5, !2392, !DIExpression(), !2396)
; call <core::slice::iter::Iter<T> as core::iter::traits::double_ended::DoubleEndedIterator>::next_back
  %0 = call align 1 ptr @"_ZN106_$LT$core..slice..iter..Iter$LT$T$GT$$u20$as$u20$core..iter..traits..double_ended..DoubleEndedIterator$GT$9next_back17hb631222b24b96e10E"(ptr align 8 %bytes), !dbg !2398
  store ptr %0, ptr %self, align 8, !dbg !2398
  %1 = load ptr, ptr %self, align 8, !dbg !2399
  %2 = ptrtoint ptr %1 to i64, !dbg !2399
  %3 = icmp eq i64 %2, 0, !dbg !2399
  %_31 = select i1 %3, i64 0, i64 1, !dbg !2399
  %4 = trunc nuw i64 %_31 to i1, !dbg !2400
  br i1 %4, label %bb17, label %bb16, !dbg !2400

bb17:                                             ; preds = %start
  %v = load ptr, ptr %self, align 8, !dbg !2401
  store ptr %v, ptr %v.dbg.spill, align 8, !dbg !2401
    #dbg_declare(ptr %v.dbg.spill, !2367, !DIExpression(), !2402)
  store ptr %v, ptr %_2, align 8, !dbg !2403
  %val = load ptr, ptr %_2, align 8, !dbg !2370
  store ptr %val, ptr %val.dbg.spill, align 8, !dbg !2370
    #dbg_declare(ptr %val.dbg.spill, !2348, !DIExpression(), !2404)
    #dbg_declare(ptr %val.dbg.spill, !2352, !DIExpression(), !2405)
  %w = load i8, ptr %val, align 1, !dbg !2406
  store i8 %w, ptr %w.dbg.spill, align 1, !dbg !2406
    #dbg_declare(ptr %w.dbg.spill, !2344, !DIExpression(), !2407)
    #dbg_declare(ptr %w.dbg.spill, !2353, !DIExpression(), !2408)
    #dbg_declare(ptr %w.dbg.spill, !2409, !DIExpression(), !2413)
  %_6 = icmp ult i8 %w, -128, !dbg !2406
  br i1 %_6, label %bb3, label %bb4, !dbg !2406

bb16:                                             ; preds = %start
  %5 = load i32, ptr @anon.17a64ccdb0dd3b2223636ea1105fd72b.2, align 4, !dbg !2415
  %6 = load i32, ptr getelementptr inbounds (i8, ptr @anon.17a64ccdb0dd3b2223636ea1105fd72b.2, i64 4), align 4, !dbg !2415
  store i32 %5, ptr %_0, align 4, !dbg !2415
  %7 = getelementptr inbounds i8, ptr %_0, i64 4, !dbg !2415
  store i32 %6, ptr %7, align 4, !dbg !2415
  br label %bb14, !dbg !2419

bb14:                                             ; preds = %bb3, %bb16
  br label %bb15, !dbg !2421

bb4:                                              ; preds = %bb17
; call <core::slice::iter::Iter<T> as core::iter::traits::double_ended::DoubleEndedIterator>::next_back
  %8 = call align 1 ptr @"_ZN106_$LT$core..slice..iter..Iter$LT$T$GT$$u20$as$u20$core..iter..traits..double_ended..DoubleEndedIterator$GT$9next_back17hb631222b24b96e10E"(ptr align 8 %bytes), !dbg !2422
  store ptr %8, ptr %self1, align 8, !dbg !2422
  %9 = load ptr, ptr %self1, align 8, !dbg !2423
  %10 = ptrtoint ptr %9 to i64, !dbg !2423
  %11 = icmp eq i64 %10, 0, !dbg !2423
  %_33 = select i1 %11, i64 0, i64 1, !dbg !2423
  %12 = trunc nuw i64 %_33 to i1, !dbg !2424
  br i1 %12, label %bb19, label %bb18, !dbg !2424

bb3:                                              ; preds = %bb17
  %next_byte = load i8, ptr %val, align 1, !dbg !2425
  store i8 %next_byte, ptr %next_byte.dbg.spill, align 1, !dbg !2425
    #dbg_declare(ptr %next_byte.dbg.spill, !2350, !DIExpression(), !2405)
  %_8 = zext i8 %next_byte to i32, !dbg !2426
  %13 = getelementptr inbounds i8, ptr %_0, i64 4, !dbg !2427
  store i32 %_8, ptr %13, align 4, !dbg !2427
  store i32 1, ptr %_0, align 4, !dbg !2427
  br label %bb14, !dbg !2419

bb19:                                             ; preds = %bb4
  %val6 = load ptr, ptr %self1, align 8, !dbg !2428
  store ptr %val6, ptr %val.dbg.spill7, align 8, !dbg !2428
    #dbg_declare(ptr %val.dbg.spill7, !2375, !DIExpression(), !2429)
  %z = load i8, ptr %val6, align 1, !dbg !2430
  store i8 %z, ptr %z.dbg.spill, align 1, !dbg !2430
    #dbg_declare(ptr %z.dbg.spill, !2357, !DIExpression(), !2431)
    #dbg_declare(ptr %z.dbg.spill, !2391, !DIExpression(), !2432)
    #dbg_declare(ptr %z.dbg.spill, !2433, !DIExpression(), !2438)
    #dbg_declare(ptr %z.dbg.spill, !2409, !DIExpression(), !2440)
  %_36 = and i8 %z, 31, !dbg !2442
  %_13 = zext i8 %_36 to i32, !dbg !2442
  store i32 %_13, ptr %ch, align 4, !dbg !2443
  %_14 = icmp slt i8 %z, -64, !dbg !2444
  br i1 %_14, label %bb6, label %bb12, !dbg !2439

bb18:                                             ; preds = %bb4
; call core::hint::unreachable_unchecked::precondition_check
  call void @_ZN4core4hint21unreachable_unchecked18precondition_check17h506f38bd5a2702beE(ptr align 8 @alloc_d35d46144934c9827c8be2c636a8f370) #14, !dbg !2445
  br label %bb2, !dbg !2445

bb2:                                              ; preds = %bb22, %bb20, %bb18
  unreachable, !dbg !2419

bb12:                                             ; preds = %bb19
  br label %bb13, !dbg !2449

bb6:                                              ; preds = %bb19
; call <core::slice::iter::Iter<T> as core::iter::traits::double_ended::DoubleEndedIterator>::next_back
  %14 = call align 1 ptr @"_ZN106_$LT$core..slice..iter..Iter$LT$T$GT$$u20$as$u20$core..iter..traits..double_ended..DoubleEndedIterator$GT$9next_back17hb631222b24b96e10E"(ptr align 8 %bytes), !dbg !2450
  store ptr %14, ptr %self2, align 8, !dbg !2450
  %15 = load ptr, ptr %self2, align 8, !dbg !2451
  %16 = ptrtoint ptr %15 to i64, !dbg !2451
  %17 = icmp eq i64 %16, 0, !dbg !2451
  %_38 = select i1 %17, i64 0, i64 1, !dbg !2451
  %18 = trunc nuw i64 %_38 to i1, !dbg !2452
  br i1 %18, label %bb21, label %bb20, !dbg !2452

bb13:                                             ; preds = %bb11, %bb12
  %ch15 = load i32, ptr %ch, align 4, !dbg !2453
  store i32 %ch15, ptr %ch.dbg.spill16, align 4, !dbg !2453
    #dbg_declare(ptr %ch.dbg.spill16, !2412, !DIExpression(), !2454)
  %_53 = shl i32 %ch15, 6, !dbg !2455
  %_55 = and i8 %w, 63, !dbg !2456
  %_54 = zext i8 %_55 to i32, !dbg !2456
  %_28 = or i32 %_53, %_54, !dbg !2455
  store i32 %_28, ptr %ch, align 4, !dbg !2457
  %_30 = load i32, ptr %ch, align 4, !dbg !2458
  %19 = getelementptr inbounds i8, ptr %_0, i64 4, !dbg !2459
  store i32 %_30, ptr %19, align 4, !dbg !2459
  store i32 1, ptr %_0, align 4, !dbg !2459
  br label %bb15, !dbg !2421

bb21:                                             ; preds = %bb6
  %val8 = load ptr, ptr %self2, align 8, !dbg !2460
  store ptr %val8, ptr %val.dbg.spill9, align 8, !dbg !2460
    #dbg_declare(ptr %val.dbg.spill9, !2377, !DIExpression(), !2461)
  %y = load i8, ptr %val8, align 1, !dbg !2462
  store i8 %y, ptr %y.dbg.spill, align 1, !dbg !2462
    #dbg_declare(ptr %y.dbg.spill, !2359, !DIExpression(), !2463)
    #dbg_declare(ptr %y.dbg.spill, !2391, !DIExpression(), !2464)
    #dbg_declare(ptr %y.dbg.spill, !2433, !DIExpression(), !2465)
    #dbg_declare(ptr %y.dbg.spill, !2409, !DIExpression(), !2467)
  %_41 = and i8 %y, 15, !dbg !2469
  %_18 = zext i8 %_41 to i32, !dbg !2469
  store i32 %_18, ptr %ch, align 4, !dbg !2470
  %_19 = icmp slt i8 %y, -64, !dbg !2471
  br i1 %_19, label %bb8, label %bb10, !dbg !2466

bb20:                                             ; preds = %bb6
; call core::hint::unreachable_unchecked::precondition_check
  call void @_ZN4core4hint21unreachable_unchecked18precondition_check17h506f38bd5a2702beE(ptr align 8 @alloc_665d5d661668e66e88a8de838b13b717) #14, !dbg !2472
  br label %bb2, !dbg !2472

bb10:                                             ; preds = %bb21
  br label %bb11, !dbg !2475

bb8:                                              ; preds = %bb21
; call <core::slice::iter::Iter<T> as core::iter::traits::double_ended::DoubleEndedIterator>::next_back
  %20 = call align 1 ptr @"_ZN106_$LT$core..slice..iter..Iter$LT$T$GT$$u20$as$u20$core..iter..traits..double_ended..DoubleEndedIterator$GT$9next_back17hb631222b24b96e10E"(ptr align 8 %bytes), !dbg !2476
  store ptr %20, ptr %self3, align 8, !dbg !2476
  %21 = load ptr, ptr %self3, align 8, !dbg !2477
  %22 = ptrtoint ptr %21 to i64, !dbg !2477
  %23 = icmp eq i64 %22, 0, !dbg !2477
  %_43 = select i1 %23, i64 0, i64 1, !dbg !2477
  %24 = trunc nuw i64 %_43 to i1, !dbg !2478
  br i1 %24, label %bb23, label %bb22, !dbg !2478

bb11:                                             ; preds = %bb23, %bb10
  %ch13 = load i32, ptr %ch, align 4, !dbg !2479
  store i32 %ch13, ptr %ch.dbg.spill14, align 4, !dbg !2479
    #dbg_declare(ptr %ch.dbg.spill14, !2412, !DIExpression(), !2480)
  %_50 = shl i32 %ch13, 6, !dbg !2481
  %_52 = and i8 %z, 63, !dbg !2482
  %_51 = zext i8 %_52 to i32, !dbg !2482
  %_26 = or i32 %_50, %_51, !dbg !2481
  store i32 %_26, ptr %ch, align 4, !dbg !2483
  br label %bb13, !dbg !2449

bb23:                                             ; preds = %bb8
  %val10 = load ptr, ptr %self3, align 8, !dbg !2484
  store ptr %val10, ptr %val.dbg.spill11, align 8, !dbg !2484
    #dbg_declare(ptr %val.dbg.spill11, !2379, !DIExpression(), !2485)
  %x = load i8, ptr %val10, align 1, !dbg !2486
  store i8 %x, ptr %x.dbg.spill, align 1, !dbg !2486
    #dbg_declare(ptr %x.dbg.spill, !2361, !DIExpression(), !2487)
    #dbg_declare(ptr %x.dbg.spill, !2391, !DIExpression(), !2488)
  %_46 = and i8 %x, 7, !dbg !2489
  %_23 = zext i8 %_46 to i32, !dbg !2489
  store i32 %_23, ptr %ch, align 4, !dbg !2490
  %ch12 = load i32, ptr %ch, align 4, !dbg !2491
  store i32 %ch12, ptr %ch.dbg.spill, align 4, !dbg !2491
    #dbg_declare(ptr %ch.dbg.spill, !2412, !DIExpression(), !2492)
  %_47 = shl i32 %ch12, 6, !dbg !2493
  %_49 = and i8 %y, 63, !dbg !2494
  %_48 = zext i8 %_49 to i32, !dbg !2494
  %_24 = or i32 %_47, %_48, !dbg !2493
  store i32 %_24, ptr %ch, align 4, !dbg !2495
  br label %bb11, !dbg !2475

bb22:                                             ; preds = %bb8
; call core::hint::unreachable_unchecked::precondition_check
  call void @_ZN4core4hint21unreachable_unchecked18precondition_check17h506f38bd5a2702beE(ptr align 8 @alloc_5ed187e3efe0ef0d2eaa93b916f4b9e6) #14, !dbg !2496
  br label %bb2, !dbg !2496

bb15:                                             ; preds = %bb14, %bb13
  %25 = load i32, ptr %_0, align 4, !dbg !2421
  %26 = getelementptr inbounds i8, ptr %_0, i64 4, !dbg !2421
  %27 = load i32, ptr %26, align 4, !dbg !2421
  %28 = insertvalue { i32, i32 } poison, i32 %25, 0, !dbg !2421
  %29 = insertvalue { i32, i32 } %28, i32 %27, 1, !dbg !2421
  ret { i32, i32 } %29, !dbg !2421
}

; core::str::<impl str>::trim_matches
; Function Attrs: nonlazybind uwtable
define internal { ptr, i64 } @"_ZN4core3str21_$LT$impl$u20$str$GT$12trim_matches17h4b5cc6a23a2fdc94E"(ptr align 1 %self.0, i64 %self.1) unnamed_addr #1 personality ptr @rust_eh_personality !dbg !2499 {
start:
  %data.dbg.spill = alloca [8 x i8], align 8
  %self.dbg.spill6 = alloca [8 x i8], align 8
  %new_len.dbg.spill = alloca [8 x i8], align 8
  %slice.dbg.spill = alloca [16 x i8], align 8
  %i.dbg.spill5 = alloca [8 x i8], align 8
  %i.dbg.spill = alloca [8 x i8], align 8
  %b.dbg.spill2 = alloca [8 x i8], align 8
  %b.dbg.spill = alloca [8 x i8], align 8
  %a.dbg.spill = alloca [8 x i8], align 8
  %0 = alloca [16 x i8], align 8
  %pat.dbg.spill = alloca [0 x i8], align 1
  %self.dbg.spill = alloca [16 x i8], align 8
  %_11 = alloca [24 x i8], align 8
  %_6 = alloca [24 x i8], align 8
  %matcher = alloca [40 x i8], align 8
  %j = alloca [8 x i8], align 8
  %i = alloca [8 x i8], align 8
  store ptr %self.0, ptr %self.dbg.spill, align 8
  %1 = getelementptr inbounds i8, ptr %self.dbg.spill, i64 8
  store i64 %self.1, ptr %1, align 8
    #dbg_declare(ptr %self.dbg.spill, !2503, !DIExpression(), !2518)
    #dbg_declare(ptr %self.dbg.spill, !2519, !DIExpression(), !2534)
    #dbg_declare(ptr %self.dbg.spill, !2536, !DIExpression(), !2553)
    #dbg_declare(ptr %pat.dbg.spill, !2504, !DIExpression(), !2555)
    #dbg_declare(ptr %i, !2505, !DIExpression(), !2556)
    #dbg_declare(ptr %j, !2507, !DIExpression(), !2557)
    #dbg_declare(ptr %matcher, !2509, !DIExpression(), !2558)
  store i64 0, ptr %i, align 8, !dbg !2559
  store i64 0, ptr %j, align 8, !dbg !2560
; call <F as core::str::pattern::Pattern>::into_searcher
  call void @"_ZN49_$LT$F$u20$as$u20$core..str..pattern..Pattern$GT$13into_searcher17ha177a799d0c889b4E"(ptr sret([40 x i8]) align 8 %matcher, ptr align 1 %self.0, i64 %self.1), !dbg !2561
; invoke <core::str::pattern::CharPredicateSearcher<F> as core::str::pattern::Searcher>::next_reject
  invoke void @"_ZN99_$LT$core..str..pattern..CharPredicateSearcher$LT$F$GT$$u20$as$u20$core..str..pattern..Searcher$GT$11next_reject17h08983e9f25d562e1E"(ptr sret([24 x i8]) align 8 %_6, ptr align 8 %matcher)
          to label %bb2 unwind label %cleanup, !dbg !2562

bb11:                                             ; preds = %cleanup
  %2 = load ptr, ptr %0, align 8, !dbg !2563
  %3 = getelementptr inbounds i8, ptr %0, i64 8, !dbg !2563
  %4 = load i32, ptr %3, align 8, !dbg !2563
  %5 = insertvalue { ptr, i32 } poison, ptr %2, 0, !dbg !2563
  %6 = insertvalue { ptr, i32 } %5, i32 %4, 1, !dbg !2563
  resume { ptr, i32 } %6, !dbg !2563

cleanup:                                          ; preds = %bb5, %start
  %7 = landingpad { ptr, i32 }
          cleanup
  %8 = extractvalue { ptr, i32 } %7, 0
  %9 = extractvalue { ptr, i32 } %7, 1
  store ptr %8, ptr %0, align 8
  %10 = getelementptr inbounds i8, ptr %0, i64 8
  store i32 %9, ptr %10, align 8
  br label %bb11

bb2:                                              ; preds = %start
  %_8 = load i64, ptr %_6, align 8, !dbg !2564
  %11 = trunc nuw i64 %_8 to i1, !dbg !2565
  br i1 %11, label %bb3, label %bb4, !dbg !2565

bb3:                                              ; preds = %bb2
  %12 = getelementptr inbounds i8, ptr %_6, i64 8, !dbg !2566
  %a = load i64, ptr %12, align 8, !dbg !2566
  store i64 %a, ptr %a.dbg.spill, align 8, !dbg !2566
    #dbg_declare(ptr %a.dbg.spill, !2511, !DIExpression(), !2566)
  %13 = getelementptr inbounds i8, ptr %_6, i64 8, !dbg !2567
  %14 = getelementptr inbounds i8, ptr %13, i64 8, !dbg !2567
  %b = load i64, ptr %14, align 8, !dbg !2567
  store i64 %b, ptr %b.dbg.spill, align 8, !dbg !2567
    #dbg_declare(ptr %b.dbg.spill, !2513, !DIExpression(), !2567)
  store i64 %a, ptr %i, align 8, !dbg !2568
  store i64 %b, ptr %j, align 8, !dbg !2569
  br label %bb5, !dbg !2570

bb4:                                              ; preds = %bb2
  br label %bb5, !dbg !2570

bb5:                                              ; preds = %bb4, %bb3
; invoke <core::str::pattern::CharPredicateSearcher<F> as core::str::pattern::ReverseSearcher>::next_reject_back
  invoke void @"_ZN106_$LT$core..str..pattern..CharPredicateSearcher$LT$F$GT$$u20$as$u20$core..str..pattern..ReverseSearcher$GT$16next_reject_back17h043cafcf5d56a936E"(ptr sret([24 x i8]) align 8 %_11, ptr align 8 %matcher)
          to label %bb6 unwind label %cleanup, !dbg !2571

bb6:                                              ; preds = %bb5
  %_13 = load i64, ptr %_11, align 8, !dbg !2572
  %15 = trunc nuw i64 %_13 to i1, !dbg !2573
  br i1 %15, label %bb7, label %bb8, !dbg !2573

bb7:                                              ; preds = %bb6
  %16 = getelementptr inbounds i8, ptr %_11, i64 8, !dbg !2574
  %17 = getelementptr inbounds i8, ptr %16, i64 8, !dbg !2574
  %b1 = load i64, ptr %17, align 8, !dbg !2574
  store i64 %b1, ptr %b.dbg.spill2, align 8, !dbg !2574
    #dbg_declare(ptr %b.dbg.spill2, !2514, !DIExpression(), !2574)
  store i64 %b1, ptr %j, align 8, !dbg !2575
  br label %bb9, !dbg !2576

bb8:                                              ; preds = %bb6
  br label %bb9, !dbg !2576

bb9:                                              ; preds = %bb8, %bb7
  %i3 = load i64, ptr %i, align 8, !dbg !2577
  store i64 %i3, ptr %i.dbg.spill, align 8, !dbg !2577
    #dbg_declare(ptr %i.dbg.spill, !2531, !DIExpression(DW_OP_LLVM_fragment, 0, 64), !2578)
    #dbg_declare(ptr %i.dbg.spill, !2544, !DIExpression(DW_OP_LLVM_fragment, 0, 64), !2579)
    #dbg_declare(ptr %i.dbg.spill, !2580, !DIExpression(), !2586)
  %i4 = load i64, ptr %j, align 8, !dbg !2588
  store i64 %i4, ptr %i.dbg.spill5, align 8, !dbg !2588
    #dbg_declare(ptr %i.dbg.spill5, !2531, !DIExpression(DW_OP_LLVM_fragment, 64, 64), !2578)
    #dbg_declare(ptr %i.dbg.spill5, !2544, !DIExpression(DW_OP_LLVM_fragment, 64, 64), !2579)
  store ptr %self.0, ptr %slice.dbg.spill, align 8, !dbg !2589
  %18 = getelementptr inbounds i8, ptr %slice.dbg.spill, i64 8, !dbg !2589
  store i64 %self.1, ptr %18, align 8, !dbg !2589
    #dbg_declare(ptr %slice.dbg.spill, !2545, !DIExpression(), !2590)
    #dbg_declare(ptr %slice.dbg.spill, !2591, !DIExpression(), !2597)
    #dbg_declare(ptr %slice.dbg.spill, !2599, !DIExpression(), !2602)
    #dbg_declare(ptr %slice.dbg.spill, !2604, !DIExpression(), !2609)
  br label %bb13, !dbg !2611

bb13:                                             ; preds = %bb9
; call core::str::traits::<impl core::slice::index::SliceIndex<str> for core::ops::range::Range<usize>>::get_unchecked::precondition_check
  call void @"_ZN4core3str6traits108_$LT$impl$u20$core..slice..index..SliceIndex$LT$str$GT$$u20$for$u20$core..ops..range..Range$LT$usize$GT$$GT$13get_unchecked18precondition_check17hfae91e32119fcf21E"(i64 %i3, i64 %i4, i64 %self.1, ptr align 8 @alloc_58f83348092d5ee291504bc000cb25c3) #14, !dbg !2613
  br label %bb15, !dbg !2614

bb15:                                             ; preds = %bb13
  %new_len = sub nuw i64 %i4, %i3, !dbg !2615
  store i64 %new_len, ptr %new_len.dbg.spill, align 8, !dbg !2615
    #dbg_declare(ptr %new_len.dbg.spill, !2551, !DIExpression(), !2616)
    #dbg_declare(ptr %new_len.dbg.spill, !2617, !DIExpression(), !2623)
  store ptr %self.0, ptr %self.dbg.spill6, align 8, !dbg !2625
    #dbg_declare(ptr %self.dbg.spill6, !2585, !DIExpression(), !2626)
  %data = getelementptr inbounds nuw i8, ptr %self.0, i64 %i3, !dbg !2627
  store ptr %data, ptr %data.dbg.spill, align 8, !dbg !2627
    #dbg_declare(ptr %data.dbg.spill, !2622, !DIExpression(), !2628)
    #dbg_declare(ptr %data.dbg.spill, !2629, !DIExpression(), !2634)
  %19 = insertvalue { ptr, i64 } poison, ptr %data, 0, !dbg !2636
  %20 = insertvalue { ptr, i64 } %19, i64 %new_len, 1, !dbg !2636
  ret { ptr, i64 } %20, !dbg !2636

bb16:                                             ; No predecessors!
  unreachable, !dbg !2563
}

; core::str::<impl str>::trim
; Function Attrs: inlinehint nonlazybind uwtable
define internal { ptr, i64 } @"_ZN4core3str21_$LT$impl$u20$str$GT$4trim17h73afe0cefd2f48dcE"(ptr align 1 %self.0, i64 %self.1) unnamed_addr #0 !dbg !2637 {
start:
  %self.dbg.spill = alloca [16 x i8], align 8
  store ptr %self.0, ptr %self.dbg.spill, align 8
  %0 = getelementptr inbounds i8, ptr %self.dbg.spill, i64 8
  store i64 %self.1, ptr %0, align 8
    #dbg_declare(ptr %self.dbg.spill, !2641, !DIExpression(), !2642)
; call core::str::<impl str>::trim_matches
  %1 = call { ptr, i64 } @"_ZN4core3str21_$LT$impl$u20$str$GT$12trim_matches17h4b5cc6a23a2fdc94E"(ptr align 1 %self.0, i64 %self.1), !dbg !2643
  %_0.0 = extractvalue { ptr, i64 } %1, 0, !dbg !2643
  %_0.1 = extractvalue { ptr, i64 } %1, 1, !dbg !2643
  %2 = insertvalue { ptr, i64 } poison, ptr %_0.0, 0, !dbg !2644
  %3 = insertvalue { ptr, i64 } %2, i64 %_0.1, 1, !dbg !2644
  ret { ptr, i64 } %3, !dbg !2644
}

; core::str::<impl str>::chars
; Function Attrs: inlinehint nonlazybind uwtable
define internal { ptr, ptr } @"_ZN4core3str21_$LT$impl$u20$str$GT$5chars17h666c553a33540dc1E"(ptr align 1 %self.0, i64 %self.1) unnamed_addr #0 !dbg !2645 {
start:
  %self.dbg.spill = alloca [16 x i8], align 8
  store ptr %self.0, ptr %self.dbg.spill, align 8
  %0 = getelementptr inbounds i8, ptr %self.dbg.spill, i64 8
  store i64 %self.1, ptr %0, align 8
    #dbg_declare(ptr %self.dbg.spill, !2649, !DIExpression(), !2650)
    #dbg_declare(ptr %self.dbg.spill, !2651, !DIExpression(), !2654)
  %_7 = getelementptr inbounds nuw i8, ptr %self.0, i64 %self.1, !dbg !2656
  %1 = insertvalue { ptr, ptr } poison, ptr %self.0, 0, !dbg !2669
  %2 = insertvalue { ptr, ptr } %1, ptr %_7, 1, !dbg !2669
  ret { ptr, ptr } %2, !dbg !2669
}

; core::str::<impl str>::parse
; Function Attrs: inlinehint nonlazybind uwtable
define internal void @"_ZN4core3str21_$LT$impl$u20$str$GT$5parse17h24dbb4bbc0714afdE"(ptr sret([16 x i8]) align 8 %_0, ptr align 1 %self.0, i64 %self.1) unnamed_addr #0 !dbg !2670 {
start:
  %self.dbg.spill = alloca [16 x i8], align 8
  store ptr %self.0, ptr %self.dbg.spill, align 8
  %0 = getelementptr inbounds i8, ptr %self.dbg.spill, i64 8
  store i64 %self.1, ptr %0, align 8
    #dbg_declare(ptr %self.dbg.spill, !2672, !DIExpression(), !2675)
; call core::num::<impl core::str::traits::FromStr for usize>::from_str
  call void @"_ZN4core3num62_$LT$impl$u20$core..str..traits..FromStr$u20$for$u20$usize$GT$8from_str17hc5ae8e52987c9f67E"(ptr sret([16 x i8]) align 8 %_0, ptr align 1 %self.0, i64 %self.1), !dbg !2676
  ret void, !dbg !2677
}

; core::str::traits::<impl core::slice::index::SliceIndex<str> for core::ops::range::Range<usize>>::get_unchecked::precondition_check
; Function Attrs: inlinehint nounwind nonlazybind uwtable
define internal void @"_ZN4core3str6traits108_$LT$impl$u20$core..slice..index..SliceIndex$LT$str$GT$$u20$for$u20$core..ops..range..Range$LT$usize$GT$$GT$13get_unchecked18precondition_check17hfae91e32119fcf21E"(i64 %start1, i64 %end, i64 %len, ptr align 8 %0) unnamed_addr #4 !dbg !2678 {
start:
  %pieces.dbg.spill = alloca [8 x i8], align 8
  %msg.dbg.spill = alloca [16 x i8], align 8
  %len.dbg.spill = alloca [8 x i8], align 8
  %end.dbg.spill = alloca [8 x i8], align 8
  %start.dbg.spill = alloca [8 x i8], align 8
  %_9 = alloca [16 x i8], align 8
  %_7 = alloca [48 x i8], align 8
  store i64 %start1, ptr %start.dbg.spill, align 8
    #dbg_declare(ptr %start.dbg.spill, !2683, !DIExpression(), !2688)
  store i64 %end, ptr %end.dbg.spill, align 8
    #dbg_declare(ptr %end.dbg.spill, !2684, !DIExpression(), !2688)
  store i64 %len, ptr %len.dbg.spill, align 8
    #dbg_declare(ptr %len.dbg.spill, !2685, !DIExpression(), !2688)
  store ptr @alloc_91f2a00ff2cd9cdc4bb205a66832e2bb, ptr %msg.dbg.spill, align 8, !dbg !2689
  %1 = getelementptr inbounds i8, ptr %msg.dbg.spill, i64 8, !dbg !2689
  store i64 219, ptr %1, align 8, !dbg !2689
    #dbg_declare(ptr %msg.dbg.spill, !2686, !DIExpression(), !2689)
  %_4 = icmp uge i64 %end, %start1, !dbg !2690
  br i1 %_4, label %bb1, label %bb3, !dbg !2690

bb3:                                              ; preds = %bb1, %start
  %2 = getelementptr inbounds nuw { ptr, i64 }, ptr %_9, i64 0, !dbg !2692
  store ptr @alloc_91f2a00ff2cd9cdc4bb205a66832e2bb, ptr %2, align 8, !dbg !2692
  %3 = getelementptr inbounds i8, ptr %2, i64 8, !dbg !2692
  store i64 219, ptr %3, align 8, !dbg !2692
  store ptr %_9, ptr %pieces.dbg.spill, align 8, !dbg !2693
    #dbg_declare(ptr %pieces.dbg.spill, !2694, !DIExpression(), !2697)
  store ptr %_9, ptr %_7, align 8, !dbg !2699
  %4 = getelementptr inbounds i8, ptr %_7, i64 8, !dbg !2699
  store i64 1, ptr %4, align 8, !dbg !2699
  %5 = load ptr, ptr @anon.17a64ccdb0dd3b2223636ea1105fd72b.1, align 8, !dbg !2699
  %6 = load i64, ptr getelementptr inbounds (i8, ptr @anon.17a64ccdb0dd3b2223636ea1105fd72b.1, i64 8), align 8, !dbg !2699
  %7 = getelementptr inbounds i8, ptr %_7, i64 32, !dbg !2699
  store ptr %5, ptr %7, align 8, !dbg !2699
  %8 = getelementptr inbounds i8, ptr %7, i64 8, !dbg !2699
  store i64 %6, ptr %8, align 8, !dbg !2699
  %9 = getelementptr inbounds i8, ptr %_7, i64 16, !dbg !2699
  store ptr inttoptr (i64 8 to ptr), ptr %9, align 8, !dbg !2699
  %10 = getelementptr inbounds i8, ptr %9, i64 8, !dbg !2699
  store i64 0, ptr %10, align 8, !dbg !2699
; call core::panicking::panic_nounwind_fmt
  call void @_ZN4core9panicking18panic_nounwind_fmt17h622822847ebd61beE(ptr align 8 %_7, i1 zeroext false, ptr align 8 %0) #16, !dbg !2700
  unreachable, !dbg !2700

bb1:                                              ; preds = %start
  %_5 = icmp ule i64 %end, %len, !dbg !2701
  br i1 %_5, label %bb2, label %bb3, !dbg !2701

bb2:                                              ; preds = %bb1
  ret void, !dbg !2702
}

; core::str::pattern::ReverseSearcher::next_reject_back
; Function Attrs: inlinehint nonlazybind uwtable
define internal void @_ZN4core3str7pattern15ReverseSearcher16next_reject_back17hfe3f2bdd53f8eed8E(ptr sret([24 x i8]) align 8 %_0, ptr align 8 %self) unnamed_addr #0 !dbg !2703 {
start:
  %b.dbg.spill = alloca [8 x i8], align 8
  %a.dbg.spill = alloca [8 x i8], align 8
  %self.dbg.spill = alloca [8 x i8], align 8
  %_2 = alloca [24 x i8], align 8
  store ptr %self, ptr %self.dbg.spill, align 8
    #dbg_declare(ptr %self.dbg.spill, !2708, !DIExpression(), !2714)
  br label %bb1, !dbg !2715

bb1:                                              ; preds = %bb5, %start
; call <core::str::pattern::MultiCharEqSearcher<C> as core::str::pattern::ReverseSearcher>::next_back
  call void @"_ZN104_$LT$core..str..pattern..MultiCharEqSearcher$LT$C$GT$$u20$as$u20$core..str..pattern..ReverseSearcher$GT$9next_back17h6015a9a94f94e13dE"(ptr sret([24 x i8]) align 8 %_2, ptr align 8 %self), !dbg !2716
  %_3 = load i64, ptr %_2, align 8, !dbg !2717
  switch i64 %_3, label %bb7 [
    i64 1, label %bb4
    i64 2, label %bb3
    i64 0, label %bb5
  ], !dbg !2718

bb7:                                              ; preds = %bb1
  unreachable, !dbg !2719

bb4:                                              ; preds = %bb1
  %0 = getelementptr inbounds i8, ptr %_2, i64 8, !dbg !2720
  %a = load i64, ptr %0, align 8, !dbg !2720
  store i64 %a, ptr %a.dbg.spill, align 8, !dbg !2720
    #dbg_declare(ptr %a.dbg.spill, !2709, !DIExpression(), !2721)
  %1 = getelementptr inbounds i8, ptr %_2, i64 16, !dbg !2722
  %b = load i64, ptr %1, align 8, !dbg !2722
  store i64 %b, ptr %b.dbg.spill, align 8, !dbg !2722
    #dbg_declare(ptr %b.dbg.spill, !2711, !DIExpression(), !2723)
  %2 = getelementptr inbounds i8, ptr %_0, i64 8, !dbg !2724
  store i64 %a, ptr %2, align 8, !dbg !2724
  %3 = getelementptr inbounds i8, ptr %2, i64 8, !dbg !2724
  store i64 %b, ptr %3, align 8, !dbg !2724
  store i64 1, ptr %_0, align 8, !dbg !2724
  br label %bb6, !dbg !2725

bb3:                                              ; preds = %bb1
  store i64 0, ptr %_0, align 8, !dbg !2727
  br label %bb6, !dbg !2728

bb5:                                              ; preds = %bb1
  br label %bb1, !dbg !2725

bb6:                                              ; preds = %bb3, %bb4
  ret void, !dbg !2729
}

; core::str::pattern::Searcher::next_reject
; Function Attrs: inlinehint nonlazybind uwtable
define internal void @_ZN4core3str7pattern8Searcher11next_reject17hb93ebae991f40bffE(ptr sret([24 x i8]) align 8 %_0, ptr align 8 %self) unnamed_addr #0 !dbg !2730 {
start:
  %b.dbg.spill = alloca [8 x i8], align 8
  %a.dbg.spill = alloca [8 x i8], align 8
  %self.dbg.spill = alloca [8 x i8], align 8
  %_2 = alloca [24 x i8], align 8
  store ptr %self, ptr %self.dbg.spill, align 8
    #dbg_declare(ptr %self.dbg.spill, !2733, !DIExpression(), !2737)
  br label %bb1, !dbg !2738

bb1:                                              ; preds = %bb5, %start
; call <core::str::pattern::MultiCharEqSearcher<C> as core::str::pattern::Searcher>::next
  call void @"_ZN97_$LT$core..str..pattern..MultiCharEqSearcher$LT$C$GT$$u20$as$u20$core..str..pattern..Searcher$GT$4next17hf9b964a00c59d7ebE"(ptr sret([24 x i8]) align 8 %_2, ptr align 8 %self), !dbg !2739
  %_3 = load i64, ptr %_2, align 8, !dbg !2740
  switch i64 %_3, label %bb7 [
    i64 1, label %bb4
    i64 2, label %bb3
    i64 0, label %bb5
  ], !dbg !2741

bb7:                                              ; preds = %bb1
  unreachable, !dbg !2742

bb4:                                              ; preds = %bb1
  %0 = getelementptr inbounds i8, ptr %_2, i64 8, !dbg !2743
  %a = load i64, ptr %0, align 8, !dbg !2743
  store i64 %a, ptr %a.dbg.spill, align 8, !dbg !2743
    #dbg_declare(ptr %a.dbg.spill, !2734, !DIExpression(), !2744)
  %1 = getelementptr inbounds i8, ptr %_2, i64 16, !dbg !2745
  %b = load i64, ptr %1, align 8, !dbg !2745
  store i64 %b, ptr %b.dbg.spill, align 8, !dbg !2745
    #dbg_declare(ptr %b.dbg.spill, !2736, !DIExpression(), !2746)
  %2 = getelementptr inbounds i8, ptr %_0, i64 8, !dbg !2747
  store i64 %a, ptr %2, align 8, !dbg !2747
  %3 = getelementptr inbounds i8, ptr %2, i64 8, !dbg !2747
  store i64 %b, ptr %3, align 8, !dbg !2747
  store i64 1, ptr %_0, align 8, !dbg !2747
  br label %bb6, !dbg !2748

bb3:                                              ; preds = %bb1
  store i64 0, ptr %_0, align 8, !dbg !2750
  br label %bb6, !dbg !2751

bb5:                                              ; preds = %bb1
  br label %bb1, !dbg !2748

bb6:                                              ; preds = %bb3, %bb4
  ret void, !dbg !2752
}

; core::char::convert::from_u32_unchecked::precondition_check
; Function Attrs: inlinehint nounwind nonlazybind uwtable
define internal void @_ZN4core4char7convert18from_u32_unchecked18precondition_check17h8be9a9896a02b6fcE(i32 %i, ptr align 8 %0) unnamed_addr #4 !dbg !2753 {
start:
  %pieces.dbg.spill = alloca [8 x i8], align 8
  %self.dbg.spill1 = alloca [8 x i8], align 8
  %self.dbg.spill = alloca [4 x i8], align 4
  %rhs.dbg.spill = alloca [4 x i8], align 4
  %msg.dbg.spill = alloca [16 x i8], align 8
  %i.dbg.spill = alloca [4 x i8], align 4
  %_7 = alloca [16 x i8], align 8
  %_5 = alloca [48 x i8], align 8
  %_3 = alloca [4 x i8], align 4
  store i32 %i, ptr %i.dbg.spill, align 4
    #dbg_declare(ptr %i.dbg.spill, !2758, !DIExpression(), !2761)
    #dbg_declare(ptr %i.dbg.spill, !2762, !DIExpression(), !2785)
  store ptr @alloc_4dc07e69e5d34e9d1484dfbbef0bb9b1, ptr %msg.dbg.spill, align 8, !dbg !2788
  %1 = getelementptr inbounds i8, ptr %msg.dbg.spill, i64 8, !dbg !2788
  store i64 174, ptr %1, align 8, !dbg !2788
    #dbg_declare(ptr %msg.dbg.spill, !2759, !DIExpression(), !2788)
  store i32 2048, ptr %rhs.dbg.spill, align 4, !dbg !2789
    #dbg_declare(ptr %rhs.dbg.spill, !2796, !DIExpression(), !2789)
  %self = xor i32 %i, 55296, !dbg !2798
  store i32 %self, ptr %self.dbg.spill, align 4, !dbg !2798
    #dbg_declare(ptr %self.dbg.spill, !2795, !DIExpression(), !2799)
  %_9 = sub i32 %self, 2048, !dbg !2800
  %_8 = icmp uge i32 %_9, 1112064, !dbg !2798
  br i1 %_8, label %bb3, label %bb4, !dbg !2798

bb4:                                              ; preds = %start
  store i32 %i, ptr %_3, align 4, !dbg !2801
  br label %bb5, !dbg !2802

bb3:                                              ; preds = %start
  store i32 1114112, ptr %_3, align 4, !dbg !2803
  br label %bb5, !dbg !2802

bb5:                                              ; preds = %bb3, %bb4
  store ptr %_3, ptr %self.dbg.spill1, align 8, !dbg !2786
    #dbg_declare(ptr %self.dbg.spill1, !2804, !DIExpression(), !2812)
  %2 = load i32, ptr %_3, align 4, !dbg !2814
  %3 = icmp eq i32 %2, 1114112, !dbg !2814
  %_12 = select i1 %3, i64 1, i64 0, !dbg !2814
  %4 = icmp eq i64 %_12, 0, !dbg !2786
  br i1 %4, label %bb1, label %bb2, !dbg !2786

bb1:                                              ; preds = %bb5
  ret void, !dbg !2815

bb2:                                              ; preds = %bb5
  %5 = getelementptr inbounds nuw { ptr, i64 }, ptr %_7, i64 0, !dbg !2816
  store ptr @alloc_4dc07e69e5d34e9d1484dfbbef0bb9b1, ptr %5, align 8, !dbg !2816
  %6 = getelementptr inbounds i8, ptr %5, i64 8, !dbg !2816
  store i64 174, ptr %6, align 8, !dbg !2816
  store ptr %_7, ptr %pieces.dbg.spill, align 8, !dbg !2817
    #dbg_declare(ptr %pieces.dbg.spill, !2818, !DIExpression(), !2821)
  store ptr %_7, ptr %_5, align 8, !dbg !2823
  %7 = getelementptr inbounds i8, ptr %_5, i64 8, !dbg !2823
  store i64 1, ptr %7, align 8, !dbg !2823
  %8 = load ptr, ptr @anon.17a64ccdb0dd3b2223636ea1105fd72b.1, align 8, !dbg !2823
  %9 = load i64, ptr getelementptr inbounds (i8, ptr @anon.17a64ccdb0dd3b2223636ea1105fd72b.1, i64 8), align 8, !dbg !2823
  %10 = getelementptr inbounds i8, ptr %_5, i64 32, !dbg !2823
  store ptr %8, ptr %10, align 8, !dbg !2823
  %11 = getelementptr inbounds i8, ptr %10, i64 8, !dbg !2823
  store i64 %9, ptr %11, align 8, !dbg !2823
  %12 = getelementptr inbounds i8, ptr %_5, i64 16, !dbg !2823
  store ptr inttoptr (i64 8 to ptr), ptr %12, align 8, !dbg !2823
  %13 = getelementptr inbounds i8, ptr %12, i64 8, !dbg !2823
  store i64 0, ptr %13, align 8, !dbg !2823
; call core::panicking::panic_nounwind_fmt
  call void @_ZN4core9panicking18panic_nounwind_fmt17h622822847ebd61beE(ptr align 8 %_5, i1 zeroext false, ptr align 8 %0) #16, !dbg !2824
  unreachable, !dbg !2824
}

; core::char::methods::<impl char>::is_whitespace
; Function Attrs: inlinehint nonlazybind uwtable
define internal zeroext i1 @"_ZN4core4char7methods22_$LT$impl$u20$char$GT$13is_whitespace17h4dd30c6e1bae052bE"(i32 %self) unnamed_addr #0 !dbg !2825 {
start:
  %self.dbg.spill = alloca [4 x i8], align 4
  %_0 = alloca [1 x i8], align 1
  store i32 %self, ptr %self.dbg.spill, align 4
    #dbg_declare(ptr %self.dbg.spill, !2827, !DIExpression(), !2830)
    #dbg_declare(ptr %self.dbg.spill, !2828, !DIExpression(), !2831)
  %0 = icmp eq i32 %self, 32, !dbg !2832
  br i1 %0, label %bb4, label %bb2, !dbg !2832

bb4:                                              ; preds = %bb3, %start
  store i8 1, ptr %_0, align 1, !dbg !2833
  br label %bb8, !dbg !2833

bb2:                                              ; preds = %start
  %_2 = icmp ule i32 9, %self, !dbg !2834
  br i1 %_2, label %bb3, label %bb1, !dbg !2834

bb1:                                              ; preds = %bb3, %bb2
  %_4 = icmp ugt i32 %self, 127, !dbg !2835
  br i1 %_4, label %bb5, label %bb6, !dbg !2835

bb3:                                              ; preds = %bb2
  %_3 = icmp ule i32 %self, 13, !dbg !2834
  br i1 %_3, label %bb4, label %bb1, !dbg !2834

bb6:                                              ; preds = %bb1
  store i8 0, ptr %_0, align 1, !dbg !2835
  br label %bb7, !dbg !2835

bb5:                                              ; preds = %bb1
; call core::unicode::unicode_data::white_space::lookup
  %1 = call zeroext i1 @_ZN4core7unicode12unicode_data11white_space6lookup17he10a1f3ca645d653E(i32 %self), !dbg !2836
  %2 = zext i1 %1 to i8, !dbg !2836
  store i8 %2, ptr %_0, align 1, !dbg !2836
  br label %bb7, !dbg !2836

bb7:                                              ; preds = %bb5, %bb6
  br label %bb8, !dbg !2837

bb8:                                              ; preds = %bb4, %bb7
  %3 = load i8, ptr %_0, align 1, !dbg !2838
  %4 = trunc nuw i8 %3 to i1, !dbg !2838
  ret i1 %4, !dbg !2838
}

; core::char::methods::<impl char>::to_digit
; Function Attrs: inlinehint nonlazybind uwtable
define internal { i32, i32 } @"_ZN4core4char7methods22_$LT$impl$u20$char$GT$8to_digit17h1e32b6ba8b6df7dbE"(i32 %self, i32 %radix) unnamed_addr #0 !dbg !2839 {
start:
  %self.dbg.spill3 = alloca [4 x i8], align 4
  %self.dbg.spill2 = alloca [4 x i8], align 4
  %rhs.dbg.spill1 = alloca [4 x i8], align 4
  %rhs.dbg.spill = alloca [4 x i8], align 4
  %pieces.dbg.spill = alloca [8 x i8], align 8
  %radix.dbg.spill = alloca [4 x i8], align 4
  %self.dbg.spill = alloca [4 x i8], align 4
  %value = alloca [4 x i8], align 4
  %_6 = alloca [48 x i8], align 8
  %_0 = alloca [8 x i8], align 4
  store i32 %self, ptr %self.dbg.spill, align 4
    #dbg_declare(ptr %self.dbg.spill, !2843, !DIExpression(), !2847)
  store i32 %radix, ptr %radix.dbg.spill, align 4
    #dbg_declare(ptr %radix.dbg.spill, !2844, !DIExpression(), !2848)
    #dbg_declare(ptr %value, !2845, !DIExpression(), !2849)
  store ptr @alloc_708eb9f2492b697e0d761b647be5d46c, ptr %pieces.dbg.spill, align 8, !dbg !2850
    #dbg_declare(ptr %pieces.dbg.spill, !2853, !DIExpression(), !2850)
  store i32 65, ptr %rhs.dbg.spill, align 4, !dbg !2855
    #dbg_declare(ptr %rhs.dbg.spill, !2859, !DIExpression(), !2855)
  store i32 48, ptr %rhs.dbg.spill1, align 4, !dbg !2861
    #dbg_declare(ptr %rhs.dbg.spill1, !2859, !DIExpression(), !2861)
  %_3 = icmp uge i32 %radix, 2, !dbg !2863
  br i1 %_3, label %bb1, label %bb3, !dbg !2863

bb3:                                              ; preds = %bb1, %start
  store ptr @alloc_708eb9f2492b697e0d761b647be5d46c, ptr %_6, align 8, !dbg !2864
  %0 = getelementptr inbounds i8, ptr %_6, i64 8, !dbg !2864
  store i64 1, ptr %0, align 8, !dbg !2864
  %1 = load ptr, ptr @anon.17a64ccdb0dd3b2223636ea1105fd72b.1, align 8, !dbg !2864
  %2 = load i64, ptr getelementptr inbounds (i8, ptr @anon.17a64ccdb0dd3b2223636ea1105fd72b.1, i64 8), align 8, !dbg !2864
  %3 = getelementptr inbounds i8, ptr %_6, i64 32, !dbg !2864
  store ptr %1, ptr %3, align 8, !dbg !2864
  %4 = getelementptr inbounds i8, ptr %3, i64 8, !dbg !2864
  store i64 %2, ptr %4, align 8, !dbg !2864
  %5 = getelementptr inbounds i8, ptr %_6, i64 16, !dbg !2864
  store ptr inttoptr (i64 8 to ptr), ptr %5, align 8, !dbg !2864
  %6 = getelementptr inbounds i8, ptr %5, i64 8, !dbg !2864
  store i64 0, ptr %6, align 8, !dbg !2864
; call core::panicking::panic_fmt
  call void @_ZN4core9panicking9panic_fmt17h92c8e5abe71dd8d1E(ptr align 8 %_6, ptr align 8 @alloc_8d0c494df655f9d67b952dcf71fa636b) #15, !dbg !2854
  unreachable, !dbg !2854

bb1:                                              ; preds = %start
  %_4 = icmp ule i32 %radix, 36, !dbg !2865
  br i1 %_4, label %bb2, label %bb3, !dbg !2865

bb2:                                              ; preds = %bb1
  %_8 = icmp ugt i32 %self, 57, !dbg !2866
  br i1 %_8, label %bb4, label %bb6, !dbg !2866

bb6:                                              ; preds = %bb4, %bb2
  store i32 %self, ptr %self.dbg.spill2, align 4, !dbg !2867
    #dbg_declare(ptr %self.dbg.spill2, !2858, !DIExpression(), !2868)
  %7 = sub i32 %self, 48, !dbg !2869
  store i32 %7, ptr %value, align 4, !dbg !2869
  br label %bb7, !dbg !2870

bb4:                                              ; preds = %bb2
  %_9 = icmp ugt i32 %radix, 10, !dbg !2871
  br i1 %_9, label %bb5, label %bb6, !dbg !2871

bb5:                                              ; preds = %bb4
  store i32 %self, ptr %self.dbg.spill3, align 4, !dbg !2872
    #dbg_declare(ptr %self.dbg.spill3, !2858, !DIExpression(), !2873)
  %_11 = sub i32 %self, 65, !dbg !2874
  %_10 = and i32 %_11, -33, !dbg !2875
  %8 = add i32 %_10, 10, !dbg !2875
  store i32 %8, ptr %value, align 4, !dbg !2875
  br label %bb7, !dbg !2870

bb7:                                              ; preds = %bb5, %bb6
  %_15 = load i32, ptr %value, align 4, !dbg !2876
  %_14 = icmp ult i32 %_15, %radix, !dbg !2876
  br i1 %_14, label %bb8, label %bb9, !dbg !2876

bb9:                                              ; preds = %bb7
  %9 = load i32, ptr @anon.17a64ccdb0dd3b2223636ea1105fd72b.2, align 4, !dbg !2877
  %10 = load i32, ptr getelementptr inbounds (i8, ptr @anon.17a64ccdb0dd3b2223636ea1105fd72b.2, i64 4), align 4, !dbg !2877
  store i32 %9, ptr %_0, align 4, !dbg !2877
  %11 = getelementptr inbounds i8, ptr %_0, i64 4, !dbg !2877
  store i32 %10, ptr %11, align 4, !dbg !2877
  br label %bb10, !dbg !2878

bb8:                                              ; preds = %bb7
  %_16 = load i32, ptr %value, align 4, !dbg !2879
  %12 = getelementptr inbounds i8, ptr %_0, i64 4, !dbg !2880
  store i32 %_16, ptr %12, align 4, !dbg !2880
  store i32 1, ptr %_0, align 4, !dbg !2880
  br label %bb10, !dbg !2878

bb10:                                             ; preds = %bb8, %bb9
  %13 = load i32, ptr %_0, align 4, !dbg !2881
  %14 = getelementptr inbounds i8, ptr %_0, i64 4, !dbg !2881
  %15 = load i32, ptr %14, align 4, !dbg !2881
  %16 = insertvalue { i32, i32 } poison, i32 %13, 0, !dbg !2881
  %17 = insertvalue { i32, i32 } %16, i32 %15, 1, !dbg !2881
  ret { i32, i32 } %17, !dbg !2881
}

; core::hint::unreachable_unchecked::precondition_check
; Function Attrs: inlinehint nounwind nonlazybind uwtable
define internal void @_ZN4core4hint21unreachable_unchecked18precondition_check17h506f38bd5a2702beE(ptr align 8 %0) unnamed_addr #4 !dbg !2882 {
start:
  %pieces.dbg.spill = alloca [8 x i8], align 8
  %msg.dbg.spill = alloca [16 x i8], align 8
  %_4 = alloca [16 x i8], align 8
  %_2 = alloca [48 x i8], align 8
  store ptr @alloc_75fb06c2453febd814e73f5f2e72ae38, ptr %msg.dbg.spill, align 8, !dbg !2887
  %1 = getelementptr inbounds i8, ptr %msg.dbg.spill, i64 8, !dbg !2887
  store i64 199, ptr %1, align 8, !dbg !2887
    #dbg_declare(ptr %msg.dbg.spill, !2885, !DIExpression(), !2887)
  %2 = getelementptr inbounds nuw { ptr, i64 }, ptr %_4, i64 0, !dbg !2888
  store ptr @alloc_75fb06c2453febd814e73f5f2e72ae38, ptr %2, align 8, !dbg !2888
  %3 = getelementptr inbounds i8, ptr %2, i64 8, !dbg !2888
  store i64 199, ptr %3, align 8, !dbg !2888
  store ptr %_4, ptr %pieces.dbg.spill, align 8, !dbg !2889
    #dbg_declare(ptr %pieces.dbg.spill, !2890, !DIExpression(), !2893)
  store ptr %_4, ptr %_2, align 8, !dbg !2895
  %4 = getelementptr inbounds i8, ptr %_2, i64 8, !dbg !2895
  store i64 1, ptr %4, align 8, !dbg !2895
  %5 = load ptr, ptr @anon.17a64ccdb0dd3b2223636ea1105fd72b.1, align 8, !dbg !2895
  %6 = load i64, ptr getelementptr inbounds (i8, ptr @anon.17a64ccdb0dd3b2223636ea1105fd72b.1, i64 8), align 8, !dbg !2895
  %7 = getelementptr inbounds i8, ptr %_2, i64 32, !dbg !2895
  store ptr %5, ptr %7, align 8, !dbg !2895
  %8 = getelementptr inbounds i8, ptr %7, i64 8, !dbg !2895
  store i64 %6, ptr %8, align 8, !dbg !2895
  %9 = getelementptr inbounds i8, ptr %_2, i64 16, !dbg !2895
  store ptr inttoptr (i64 8 to ptr), ptr %9, align 8, !dbg !2895
  %10 = getelementptr inbounds i8, ptr %9, i64 8, !dbg !2895
  store i64 0, ptr %10, align 8, !dbg !2895
; call core::panicking::panic_nounwind_fmt
  call void @_ZN4core9panicking18panic_nounwind_fmt17h622822847ebd61beE(ptr align 8 %_2, i1 zeroext false, ptr align 8 %0) #16, !dbg !2896
  unreachable, !dbg !2896
}

; core::alloc::layout::Layout::from_size_align_unchecked::precondition_check
; Function Attrs: inlinehint nounwind nonlazybind uwtable
define internal void @_ZN4core5alloc6layout6Layout25from_size_align_unchecked18precondition_check17he8ce5612b16a19d2E(i64 %size, i64 %align, ptr align 8 %0) unnamed_addr #4 personality ptr @rust_eh_personality !dbg !2897 {
start:
  %pieces.dbg.spill = alloca [8 x i8], align 8
  %msg.dbg.spill = alloca [16 x i8], align 8
  %align.dbg.spill = alloca [8 x i8], align 8
  %size.dbg.spill = alloca [8 x i8], align 8
  %_7 = alloca [16 x i8], align 8
  %_5 = alloca [48 x i8], align 8
  store i64 %size, ptr %size.dbg.spill, align 8
    #dbg_declare(ptr %size.dbg.spill, !2905, !DIExpression(), !2909)
  store i64 %align, ptr %align.dbg.spill, align 8
    #dbg_declare(ptr %align.dbg.spill, !2906, !DIExpression(), !2909)
  store ptr @alloc_1be5ea12ba708d9a11b6e93a7d387a75, ptr %msg.dbg.spill, align 8, !dbg !2910
  %1 = getelementptr inbounds i8, ptr %msg.dbg.spill, i64 8, !dbg !2910
  store i64 281, ptr %1, align 8, !dbg !2910
    #dbg_declare(ptr %msg.dbg.spill, !2907, !DIExpression(), !2910)
; invoke core::alloc::layout::Layout::is_size_align_valid
  %_3 = invoke zeroext i1 @_ZN4core5alloc6layout6Layout19is_size_align_valid17h26adf6c6175f55f5E(i64 %size, i64 %align)
          to label %bb1 unwind label %terminate, !dbg !2911

terminate:                                        ; preds = %start
  %2 = landingpad { ptr, i32 }
          filter [0 x ptr] zeroinitializer
; call core::panicking::panic_cannot_unwind
  call void @_ZN4core9panicking19panic_cannot_unwind17hebe3a4840b691755E() #18, !dbg !2914
  unreachable, !dbg !2914

bb1:                                              ; preds = %start
  br i1 %_3, label %bb2, label %bb3, !dbg !2911

bb3:                                              ; preds = %bb1
  %3 = getelementptr inbounds nuw { ptr, i64 }, ptr %_7, i64 0, !dbg !2915
  store ptr @alloc_1be5ea12ba708d9a11b6e93a7d387a75, ptr %3, align 8, !dbg !2915
  %4 = getelementptr inbounds i8, ptr %3, i64 8, !dbg !2915
  store i64 281, ptr %4, align 8, !dbg !2915
  store ptr %_7, ptr %pieces.dbg.spill, align 8, !dbg !2916
    #dbg_declare(ptr %pieces.dbg.spill, !2917, !DIExpression(), !2920)
  store ptr %_7, ptr %_5, align 8, !dbg !2922
  %5 = getelementptr inbounds i8, ptr %_5, i64 8, !dbg !2922
  store i64 1, ptr %5, align 8, !dbg !2922
  %6 = load ptr, ptr @anon.17a64ccdb0dd3b2223636ea1105fd72b.1, align 8, !dbg !2922
  %7 = load i64, ptr getelementptr inbounds (i8, ptr @anon.17a64ccdb0dd3b2223636ea1105fd72b.1, i64 8), align 8, !dbg !2922
  %8 = getelementptr inbounds i8, ptr %_5, i64 32, !dbg !2922
  store ptr %6, ptr %8, align 8, !dbg !2922
  %9 = getelementptr inbounds i8, ptr %8, i64 8, !dbg !2922
  store i64 %7, ptr %9, align 8, !dbg !2922
  %10 = getelementptr inbounds i8, ptr %_5, i64 16, !dbg !2922
  store ptr inttoptr (i64 8 to ptr), ptr %10, align 8, !dbg !2922
  %11 = getelementptr inbounds i8, ptr %10, i64 8, !dbg !2922
  store i64 0, ptr %11, align 8, !dbg !2922
; call core::panicking::panic_nounwind_fmt
  call void @_ZN4core9panicking18panic_nounwind_fmt17h622822847ebd61beE(ptr align 8 %_5, i1 zeroext false, ptr align 8 %0) #16, !dbg !2923
  unreachable, !dbg !2923

bb2:                                              ; preds = %bb1
  ret void, !dbg !2924
}

; core::slice::raw::from_raw_parts::precondition_check
; Function Attrs: inlinehint nounwind nonlazybind uwtable
define internal void @_ZN4core5slice3raw14from_raw_parts18precondition_check17h654ca9bd6c0aba91E(ptr %data, i64 %size, i64 %align, i64 %len, ptr align 8 %0) unnamed_addr #4 personality ptr @rust_eh_personality !dbg !2925 {
start:
  %pieces.dbg.spill1 = alloca [8 x i8], align 8
  %1 = alloca [4 x i8], align 4
  %ptr.dbg.spill = alloca [8 x i8], align 8
  %pieces.dbg.spill = alloca [8 x i8], align 8
  %is_zst.dbg.spill = alloca [1 x i8], align 1
  %msg.dbg.spill = alloca [16 x i8], align 8
  %len.dbg.spill = alloca [8 x i8], align 8
  %align.dbg.spill = alloca [8 x i8], align 8
  %size.dbg.spill = alloca [8 x i8], align 8
  %data.dbg.spill = alloca [8 x i8], align 8
  %max_len = alloca [8 x i8], align 8
  %_14 = alloca [48 x i8], align 8
  %_11 = alloca [16 x i8], align 8
  %_9 = alloca [48 x i8], align 8
  store ptr %data, ptr %data.dbg.spill, align 8
    #dbg_declare(ptr %data.dbg.spill, !2931, !DIExpression(), !2937)
  store i64 %size, ptr %size.dbg.spill, align 8
    #dbg_declare(ptr %size.dbg.spill, !2932, !DIExpression(), !2937)
    #dbg_declare(ptr %size.dbg.spill, !2938, !DIExpression(), !2947)
  store i64 %align, ptr %align.dbg.spill, align 8
    #dbg_declare(ptr %align.dbg.spill, !2933, !DIExpression(), !2937)
    #dbg_declare(ptr %align.dbg.spill, !2951, !DIExpression(), !2958)
    #dbg_declare(ptr %align.dbg.spill, !2960, !DIExpression(), !2966)
    #dbg_declare(ptr %align.dbg.spill, !2968, !DIExpression(), !2973)
    #dbg_declare(ptr %align.dbg.spill, !2976, !DIExpression(), !2980)
    #dbg_declare(ptr %align.dbg.spill, !2983, !DIExpression(), !2988)
    #dbg_declare(ptr %align.dbg.spill, !2990, !DIExpression(), !2995)
  store i64 %len, ptr %len.dbg.spill, align 8
    #dbg_declare(ptr %len.dbg.spill, !2934, !DIExpression(), !2937)
    #dbg_declare(ptr %len.dbg.spill, !2944, !DIExpression(), !2997)
    #dbg_declare(ptr %max_len, !2945, !DIExpression(), !2998)
  store ptr @alloc_a28e8c8fd5088943a8b5d44af697ff83, ptr %msg.dbg.spill, align 8, !dbg !2999
  %2 = getelementptr inbounds i8, ptr %msg.dbg.spill, i64 8, !dbg !2999
  store i64 279, ptr %2, align 8, !dbg !2999
    #dbg_declare(ptr %msg.dbg.spill, !2935, !DIExpression(), !2999)
  store i8 0, ptr %is_zst.dbg.spill, align 1, !dbg !3000
    #dbg_declare(ptr %is_zst.dbg.spill, !2957, !DIExpression(), !3000)
  store ptr @alloc_e92e94d0ff530782b571cfd99ec66aef, ptr %pieces.dbg.spill, align 8, !dbg !3001
    #dbg_declare(ptr %pieces.dbg.spill, !3004, !DIExpression(), !3001)
  store ptr %data, ptr %ptr.dbg.spill, align 8, !dbg !3007
    #dbg_declare(ptr %ptr.dbg.spill, !2956, !DIExpression(), !3008)
    #dbg_declare(ptr %ptr.dbg.spill, !2965, !DIExpression(), !3009)
    #dbg_declare(ptr %ptr.dbg.spill, !2972, !DIExpression(), !2973)
    #dbg_declare(ptr %ptr.dbg.spill, !2979, !DIExpression(), !3010)
    #dbg_declare(ptr %ptr.dbg.spill, !3011, !DIExpression(), !3016)
    #dbg_declare(ptr %ptr.dbg.spill, !3018, !DIExpression(), !3024)
    #dbg_declare(ptr %ptr.dbg.spill, !3026, !DIExpression(), !3029)
  %3 = call i64 @llvm.ctpop.i64(i64 %align), !dbg !3031
  %4 = trunc i64 %3 to i32, !dbg !3031
  store i32 %4, ptr %1, align 4, !dbg !3031
  %_18 = load i32, ptr %1, align 4, !dbg !3031
  %5 = icmp eq i32 %_18, 1, !dbg !3032
  br i1 %5, label %bb8, label %bb9, !dbg !3032

bb8:                                              ; preds = %start
  %_16 = ptrtoint ptr %data to i64, !dbg !3033
  %_17 = sub i64 %align, 1, !dbg !3034
  %_15 = and i64 %_16, %_17, !dbg !3035
  %6 = icmp eq i64 %_15, 0, !dbg !2967
  br i1 %6, label %bb6, label %bb7, !dbg !2967

bb9:                                              ; preds = %start
  store ptr @alloc_e92e94d0ff530782b571cfd99ec66aef, ptr %_14, align 8, !dbg !3036
  %7 = getelementptr inbounds i8, ptr %_14, i64 8, !dbg !3036
  store i64 1, ptr %7, align 8, !dbg !3036
  %8 = load ptr, ptr @anon.17a64ccdb0dd3b2223636ea1105fd72b.1, align 8, !dbg !3036
  %9 = load i64, ptr getelementptr inbounds (i8, ptr @anon.17a64ccdb0dd3b2223636ea1105fd72b.1, i64 8), align 8, !dbg !3036
  %10 = getelementptr inbounds i8, ptr %_14, i64 32, !dbg !3036
  store ptr %8, ptr %10, align 8, !dbg !3036
  %11 = getelementptr inbounds i8, ptr %10, i64 8, !dbg !3036
  store i64 %9, ptr %11, align 8, !dbg !3036
  %12 = getelementptr inbounds i8, ptr %_14, i64 16, !dbg !3036
  store ptr inttoptr (i64 8 to ptr), ptr %12, align 8, !dbg !3036
  %13 = getelementptr inbounds i8, ptr %12, i64 8, !dbg !3036
  store i64 0, ptr %13, align 8, !dbg !3036
; invoke core::panicking::panic_fmt
  invoke void @_ZN4core9panicking9panic_fmt17h92c8e5abe71dd8d1E(ptr align 8 %_14, ptr align 8 @alloc_db58294b8d2ce64ae31d5b63c946c529) #15
          to label %unreachable unwind label %terminate, !dbg !3006

bb6:                                              ; preds = %bb8
  %_12 = icmp eq i64 %_16, 0, !dbg !3037
  %_5 = xor i1 %_12, true, !dbg !3043
  br i1 %_5, label %bb1, label %bb4, !dbg !2959

bb7:                                              ; preds = %bb8
  br label %bb4, !dbg !2959

bb4:                                              ; preds = %bb7, %bb6
  br label %bb5, !dbg !3044

bb1:                                              ; preds = %bb6
  %_22 = icmp eq i64 %size, 0, !dbg !3046
  %14 = icmp eq i64 %size, 0, !dbg !3046
  br i1 %14, label %bb11, label %bb12, !dbg !3046

bb11:                                             ; preds = %bb1
  store i64 -1, ptr %max_len, align 8, !dbg !3047
  br label %bb14, !dbg !3048

bb12:                                             ; preds = %bb1
  br i1 %_22, label %panic, label %bb13, !dbg !3049

bb14:                                             ; preds = %bb13, %bb11
  %_23 = load i64, ptr %max_len, align 8, !dbg !3050
  %_7 = icmp ule i64 %len, %_23, !dbg !3051
  br i1 %_7, label %bb2, label %bb3, !dbg !2948

bb13:                                             ; preds = %bb12
  %15 = udiv i64 9223372036854775807, %size, !dbg !3049
  store i64 %15, ptr %max_len, align 8, !dbg !3049
  br label %bb14, !dbg !3048

panic:                                            ; preds = %bb12
; invoke core::panicking::panic_const::panic_const_div_by_zero
  invoke void @_ZN4core9panicking11panic_const23panic_const_div_by_zero17hd4705242238fd5f4E(ptr align 8 @alloc_f43627efe9d9e10b7544d0f2c13bff14) #15
          to label %unreachable unwind label %terminate, !dbg !3049

terminate:                                        ; preds = %bb9, %panic
  %16 = landingpad { ptr, i32 }
          filter [0 x ptr] zeroinitializer
; call core::panicking::panic_cannot_unwind
  call void @_ZN4core9panicking19panic_cannot_unwind17hebe3a4840b691755E() #18, !dbg !3052
  unreachable, !dbg !3052

unreachable:                                      ; preds = %bb9, %panic
  unreachable

bb3:                                              ; preds = %bb14
  br label %bb5, !dbg !3044

bb2:                                              ; preds = %bb14
  ret void, !dbg !3053

bb5:                                              ; preds = %bb4, %bb3
  %17 = getelementptr inbounds nuw { ptr, i64 }, ptr %_11, i64 0, !dbg !3054
  store ptr @alloc_a28e8c8fd5088943a8b5d44af697ff83, ptr %17, align 8, !dbg !3054
  %18 = getelementptr inbounds i8, ptr %17, i64 8, !dbg !3054
  store i64 279, ptr %18, align 8, !dbg !3054
  store ptr %_11, ptr %pieces.dbg.spill1, align 8, !dbg !3055
    #dbg_declare(ptr %pieces.dbg.spill1, !3005, !DIExpression(), !3056)
  store ptr %_11, ptr %_9, align 8, !dbg !3058
  %19 = getelementptr inbounds i8, ptr %_9, i64 8, !dbg !3058
  store i64 1, ptr %19, align 8, !dbg !3058
  %20 = load ptr, ptr @anon.17a64ccdb0dd3b2223636ea1105fd72b.1, align 8, !dbg !3058
  %21 = load i64, ptr getelementptr inbounds (i8, ptr @anon.17a64ccdb0dd3b2223636ea1105fd72b.1, i64 8), align 8, !dbg !3058
  %22 = getelementptr inbounds i8, ptr %_9, i64 32, !dbg !3058
  store ptr %20, ptr %22, align 8, !dbg !3058
  %23 = getelementptr inbounds i8, ptr %22, i64 8, !dbg !3058
  store i64 %21, ptr %23, align 8, !dbg !3058
  %24 = getelementptr inbounds i8, ptr %_9, i64 16, !dbg !3058
  store ptr inttoptr (i64 8 to ptr), ptr %24, align 8, !dbg !3058
  %25 = getelementptr inbounds i8, ptr %24, i64 8, !dbg !3058
  store i64 0, ptr %25, align 8, !dbg !3058
; call core::panicking::panic_nounwind_fmt
  call void @_ZN4core9panicking18panic_nounwind_fmt17h622822847ebd61beE(ptr align 8 %_9, i1 zeroext false, ptr align 8 %0) #16, !dbg !3059
  unreachable, !dbg !3059
}

; core::unicode::unicode_data::white_space::lookup
; Function Attrs: inlinehint nonlazybind uwtable
define internal zeroext i1 @_ZN4core7unicode12unicode_data11white_space6lookup17he10a1f3ca645d653E(i32 %c) unnamed_addr #0 !dbg !3060 {
start:
  %c.dbg.spill = alloca [4 x i8], align 4
  %_0 = alloca [1 x i8], align 1
  store i32 %c, ptr %c.dbg.spill, align 4
    #dbg_declare(ptr %c.dbg.spill, !3066, !DIExpression(), !3067)
  %_3 = lshr i32 %c, 8, !dbg !3068
  switch i32 %_3, label %bb1 [
    i32 0, label %bb5
    i32 22, label %bb4
    i32 32, label %bb3
    i32 48, label %bb2
  ], !dbg !3069

bb1:                                              ; preds = %start
  store i8 0, ptr %_0, align 1, !dbg !3070
  br label %bb8, !dbg !3070

bb5:                                              ; preds = %start
  %_9 = zext i32 %c to i64, !dbg !3071
  %_8 = and i64 %_9, 255, !dbg !3071
  %_10 = icmp ult i64 %_8, 256, !dbg !3072
  br i1 %_10, label %bb6, label %panic, !dbg !3072

bb4:                                              ; preds = %start
  %0 = icmp eq i32 %c, 5760, !dbg !3073
  %1 = zext i1 %0 to i8, !dbg !3073
  store i8 %1, ptr %_0, align 1, !dbg !3073
  br label %bb8, !dbg !3074

bb3:                                              ; preds = %start
  %_15 = zext i32 %c to i64, !dbg !3075
  %_14 = and i64 %_15, 255, !dbg !3075
  %_16 = icmp ult i64 %_14, 256, !dbg !3076
  br i1 %_16, label %bb7, label %panic1, !dbg !3076

bb2:                                              ; preds = %start
  %2 = icmp eq i32 %c, 12288, !dbg !3077
  %3 = zext i1 %2 to i8, !dbg !3077
  store i8 %3, ptr %_0, align 1, !dbg !3077
  br label %bb8, !dbg !3078

bb6:                                              ; preds = %bb5
  %4 = getelementptr inbounds nuw i8, ptr @_ZN4core7unicode12unicode_data11white_space14WHITESPACE_MAP17h4cf41e25fd3a5318E, i64 %_8, !dbg !3072
  %_6 = load i8, ptr %4, align 1, !dbg !3072
  %_5 = and i8 %_6, 1, !dbg !3072
  %5 = icmp ne i8 %_5, 0, !dbg !3072
  %6 = zext i1 %5 to i8, !dbg !3072
  store i8 %6, ptr %_0, align 1, !dbg !3072
  br label %bb8, !dbg !3079

panic:                                            ; preds = %bb5
; call core::panicking::panic_bounds_check
  call void @_ZN4core9panicking18panic_bounds_check17hbc09f5d79f1a5789E(i64 %_8, i64 256, ptr align 8 @alloc_6defd339d793744daa3cb881ef6fc606) #15, !dbg !3072
  unreachable, !dbg !3072

bb8:                                              ; preds = %bb1, %bb2, %bb7, %bb4, %bb6
  %7 = load i8, ptr %_0, align 1, !dbg !3080
  %8 = trunc nuw i8 %7 to i1, !dbg !3080
  ret i1 %8, !dbg !3080

bb7:                                              ; preds = %bb3
  %9 = getelementptr inbounds nuw i8, ptr @_ZN4core7unicode12unicode_data11white_space14WHITESPACE_MAP17h4cf41e25fd3a5318E, i64 %_14, !dbg !3076
  %_12 = load i8, ptr %9, align 1, !dbg !3076
  %_11 = and i8 %_12, 2, !dbg !3076
  %10 = icmp ne i8 %_11, 0, !dbg !3076
  %11 = zext i1 %10 to i8, !dbg !3076
  store i8 %11, ptr %_0, align 1, !dbg !3076
  br label %bb8, !dbg !3081

panic1:                                           ; preds = %bb3
; call core::panicking::panic_bounds_check
  call void @_ZN4core9panicking18panic_bounds_check17hbc09f5d79f1a5789E(i64 %_14, i64 256, ptr align 8 @alloc_f173f0e2cf77b1f431edeee8d5a86d45) #15, !dbg !3076
  unreachable, !dbg !3076
}

; <F as core::str::pattern::MultiCharEq>::matches
; Function Attrs: inlinehint nonlazybind uwtable
define internal zeroext i1 @"_ZN53_$LT$F$u20$as$u20$core..str..pattern..MultiCharEq$GT$7matches17h39b8e1c983bb26a6E"(ptr align 1 %self, i32 %c) unnamed_addr #0 !dbg !3082 {
start:
  %c.dbg.spill = alloca [4 x i8], align 4
  %self.dbg.spill = alloca [8 x i8], align 8
  store ptr %self, ptr %self.dbg.spill, align 8
    #dbg_declare(ptr %self.dbg.spill, !3085, !DIExpression(), !3087)
  store i32 %c, ptr %c.dbg.spill, align 4
    #dbg_declare(ptr %c.dbg.spill, !3086, !DIExpression(), !3088)
; call core::ops::function::FnMut::call_mut
  %_0 = call zeroext i1 @_ZN4core3ops8function5FnMut8call_mut17h0d542d78c58f9382E(ptr align 1 %self, i32 %c), !dbg !3089
  ret i1 %_0, !dbg !3090
}

; <() as std::process::Termination>::report
; Function Attrs: inlinehint nonlazybind uwtable
define internal i8 @"_ZN54_$LT$$LP$$RP$$u20$as$u20$std..process..Termination$GT$6report17hd7c018027f62cac7E"() unnamed_addr #0 !dbg !3091 {
start:
  %_1.dbg.spill = alloca [0 x i8], align 1
    #dbg_declare(ptr %_1.dbg.spill, !3096, !DIExpression(), !3097)
  ret i8 0, !dbg !3098
}

; alloc::string::String::new
; Function Attrs: inlinehint nonlazybind uwtable
define internal void @_ZN5alloc6string6String3new17h8b4fd48d3358eb98E(ptr sret([24 x i8]) align 8 %_0) unnamed_addr #0 !dbg !3099 {
start:
  %_1 = alloca [24 x i8], align 8
  store i64 0, ptr %_1, align 8, !dbg !3104
  %0 = getelementptr inbounds i8, ptr %_1, i64 8, !dbg !3104
  store ptr inttoptr (i64 1 to ptr), ptr %0, align 8, !dbg !3104
  %1 = getelementptr inbounds i8, ptr %_1, i64 16, !dbg !3104
  store i64 0, ptr %1, align 8, !dbg !3104
  call void @llvm.memcpy.p0.p0.i64(ptr align 8 %_0, ptr align 8 %_1, i64 24, i1 false), !dbg !3111
  ret void, !dbg !3112
}

; alloc::string::String::as_str
; Function Attrs: inlinehint nonlazybind uwtable
define internal { ptr, i64 } @_ZN5alloc6string6String6as_str17h4198878d5ded8febE(ptr align 8 %self) unnamed_addr #0 !dbg !3113 {
start:
  %v.dbg.spill = alloca [16 x i8], align 8
  %len.dbg.spill = alloca [8 x i8], align 8
  %data.dbg.spill = alloca [8 x i8], align 8
  %self.dbg.spill1 = alloca [8 x i8], align 8
  %self.dbg.spill = alloca [8 x i8], align 8
  store ptr %self, ptr %self.dbg.spill, align 8
    #dbg_declare(ptr %self.dbg.spill, !3119, !DIExpression(), !3120)
  store ptr %self, ptr %self.dbg.spill1, align 8, !dbg !3121
    #dbg_declare(ptr %self.dbg.spill1, !3122, !DIExpression(), !3129)
    #dbg_declare(ptr %self.dbg.spill1, !3131, !DIExpression(), !3137)
  %0 = getelementptr inbounds i8, ptr %self, i64 8, !dbg !3139
  %_6 = load ptr, ptr %0, align 8, !dbg !3139
  store ptr %_6, ptr %data.dbg.spill, align 8, !dbg !3159
    #dbg_declare(ptr %data.dbg.spill, !3160, !DIExpression(), !3166)
    #dbg_declare(ptr %data.dbg.spill, !3168, !DIExpression(), !3172)
    #dbg_declare(ptr %data.dbg.spill, !3174, !DIExpression(), !3177)
  %1 = getelementptr inbounds i8, ptr %self, i64 16, !dbg !3179
  %len = load i64, ptr %1, align 8, !dbg !3179
  store i64 %len, ptr %len.dbg.spill, align 8, !dbg !3179
    #dbg_declare(ptr %len.dbg.spill, !3165, !DIExpression(), !3180)
    #dbg_declare(ptr %len.dbg.spill, !3171, !DIExpression(), !3181)
  br label %bb1, !dbg !3182

bb1:                                              ; preds = %start
; call core::slice::raw::from_raw_parts::precondition_check
  call void @_ZN4core5slice3raw14from_raw_parts18precondition_check17h654ca9bd6c0aba91E(ptr %_6, i64 1, i64 1, i64 %len, ptr align 8 @alloc_615f9dd9d0b00cae2582c98c9f3b7009) #14, !dbg !3184
  br label %bb3, !dbg !3185

bb3:                                              ; preds = %bb1
  store ptr %_6, ptr %v.dbg.spill, align 8, !dbg !3186
  %2 = getelementptr inbounds i8, ptr %v.dbg.spill, i64 8, !dbg !3186
  store i64 %len, ptr %2, align 8, !dbg !3186
    #dbg_declare(ptr %v.dbg.spill, !3187, !DIExpression(), !3194)
  %3 = insertvalue { ptr, i64 } poison, ptr %_6, 0, !dbg !3196
  %4 = insertvalue { ptr, i64 } %3, i64 %len, 1, !dbg !3196
  ret { ptr, i64 } %4, !dbg !3196
}

; <alloc::alloc::Global as core::alloc::Allocator>::deallocate
; Function Attrs: inlinehint nonlazybind uwtable
define internal void @"_ZN63_$LT$alloc..alloc..Global$u20$as$u20$core..alloc..Allocator$GT$10deallocate17hbd240c715012e592E"(ptr align 1 %self, ptr %ptr, i64 %0, i64 %1) unnamed_addr #0 !dbg !3197 {
start:
  %self.dbg.spill5 = alloca [8 x i8], align 8
  %self.dbg.spill4 = alloca [8 x i8], align 8
  %ptr.dbg.spill3 = alloca [8 x i8], align 8
  %self.dbg.spill2 = alloca [8 x i8], align 8
  %ptr.dbg.spill = alloca [8 x i8], align 8
  %self.dbg.spill = alloca [8 x i8], align 8
  %layout1 = alloca [16 x i8], align 8
  %layout = alloca [16 x i8], align 8
  store i64 %0, ptr %layout, align 8
  %2 = getelementptr inbounds i8, ptr %layout, i64 8
  store i64 %1, ptr %2, align 8
  store ptr %self, ptr %self.dbg.spill, align 8
    #dbg_declare(ptr %self.dbg.spill, !3211, !DIExpression(), !3214)
  store ptr %ptr, ptr %ptr.dbg.spill, align 8
    #dbg_declare(ptr %ptr.dbg.spill, !3212, !DIExpression(), !3215)
    #dbg_declare(ptr %ptr.dbg.spill, !3216, !DIExpression(), !3219)
    #dbg_declare(ptr %layout, !3213, !DIExpression(), !3221)
    #dbg_declare(ptr %layout1, !3222, !DIExpression(), !3228)
  store ptr %layout, ptr %self.dbg.spill2, align 8, !dbg !3230
    #dbg_declare(ptr %self.dbg.spill2, !3231, !DIExpression(), !3238)
  %3 = getelementptr inbounds i8, ptr %layout, i64 8, !dbg !3240
  %_4 = load i64, ptr %3, align 8, !dbg !3240
  %4 = icmp eq i64 %_4, 0, !dbg !3230
  br i1 %4, label %bb2, label %bb1, !dbg !3230

bb2:                                              ; preds = %bb1, %start
  ret void, !dbg !3241

bb1:                                              ; preds = %start
  store ptr %ptr, ptr %ptr.dbg.spill3, align 8, !dbg !3242
    #dbg_declare(ptr %ptr.dbg.spill3, !3227, !DIExpression(), !3243)
  %5 = load i64, ptr %layout, align 8, !dbg !3244
  %6 = getelementptr inbounds i8, ptr %layout, i64 8, !dbg !3244
  %7 = load i64, ptr %6, align 8, !dbg !3244
  store i64 %5, ptr %layout1, align 8, !dbg !3244
  %8 = getelementptr inbounds i8, ptr %layout1, i64 8, !dbg !3244
  store i64 %7, ptr %8, align 8, !dbg !3244
  store ptr %layout1, ptr %self.dbg.spill4, align 8, !dbg !3245
    #dbg_declare(ptr %self.dbg.spill4, !3231, !DIExpression(), !3246)
  store ptr %layout1, ptr %self.dbg.spill5, align 8, !dbg !3248
    #dbg_declare(ptr %self.dbg.spill5, !3249, !DIExpression(), !3253)
  %_11 = load i64, ptr %layout, align 8, !dbg !3255
; call __rustc::__rust_dealloc
  call void @_RNvCskdKJRKLKjqM_7___rustc14___rust_dealloc(ptr %ptr, i64 %_4, i64 %_11) #14, !dbg !3256
  br label %bb2, !dbg !3257
}

; <alloc::string::String as core::ops::deref::Deref>::deref
; Function Attrs: inlinehint nonlazybind uwtable
define internal { ptr, i64 } @"_ZN65_$LT$alloc..string..String$u20$as$u20$core..ops..deref..Deref$GT$5deref17h17f5ac8fa6f5a376E"(ptr align 8 %self) unnamed_addr #0 !dbg !3258 {
start:
  %self.dbg.spill = alloca [8 x i8], align 8
  store ptr %self, ptr %self.dbg.spill, align 8
    #dbg_declare(ptr %self.dbg.spill, !3261, !DIExpression(), !3262)
; call alloc::string::String::as_str
  %0 = call { ptr, i64 } @_ZN5alloc6string6String6as_str17h4198878d5ded8febE(ptr align 8 %self), !dbg !3263
  %_0.0 = extractvalue { ptr, i64 } %0, 0, !dbg !3263
  %_0.1 = extractvalue { ptr, i64 } %0, 1, !dbg !3263
  %1 = insertvalue { ptr, i64 } poison, ptr %_0.0, 0, !dbg !3264
  %2 = insertvalue { ptr, i64 } %1, i64 %_0.1, 1, !dbg !3264
  ret { ptr, i64 } %2, !dbg !3264
}

; <core::num::error::ParseIntError as core::fmt::Debug>::fmt
; Function Attrs: inlinehint nonlazybind uwtable
define internal zeroext i1 @"_ZN68_$LT$core..num..error..ParseIntError$u20$as$u20$core..fmt..Debug$GT$3fmt17hd88b295c42b8f464E"(ptr align 1 %self, ptr align 8 %f) unnamed_addr #0 !dbg !3265 {
start:
  %f.dbg.spill = alloca [8 x i8], align 8
  %self.dbg.spill = alloca [8 x i8], align 8
  %_5 = alloca [8 x i8], align 8
  store ptr %self, ptr %self.dbg.spill, align 8
    #dbg_declare(ptr %self.dbg.spill, !3272, !DIExpression(), !3274)
  store ptr %f, ptr %f.dbg.spill, align 8
    #dbg_declare(ptr %f.dbg.spill, !3273, !DIExpression(), !3274)
  store ptr %self, ptr %_5, align 8, !dbg !3275
; call core::fmt::Formatter::debug_struct_field1_finish
  %_0 = call zeroext i1 @_ZN4core3fmt9Formatter26debug_struct_field1_finish17h8a12e96a3fe33b10E(ptr align 8 %f, ptr align 1 @alloc_f62df14955f7d78bca139b0a7668683d, i64 13, ptr align 1 @alloc_a5d866b1768ad3f826bccdb004a1a8ae, i64 4, ptr align 1 %_5, ptr align 8 @vtable.3), !dbg !3274
  ret i1 %_0, !dbg !3276
}

; <alloc::boxed::Box<T,A> as core::ops::drop::Drop>::drop
; Function Attrs: inlinehint nonlazybind uwtable
define internal void @"_ZN72_$LT$alloc..boxed..Box$LT$T$C$A$GT$$u20$as$u20$core..ops..drop..Drop$GT$4drop17ha854b50d3b406338E"(ptr align 8 %self) unnamed_addr #0 !dbg !3277 {
start:
  %unique.dbg.spill = alloca [8 x i8], align 8
  %self.dbg.spill1 = alloca [8 x i8], align 8
  %align.dbg.spill = alloca [8 x i8], align 8
  %0 = alloca [8 x i8], align 8
  %size.dbg.spill = alloca [8 x i8], align 8
  %1 = alloca [8 x i8], align 8
  %t.dbg.spill = alloca [16 x i8], align 8
  %ptr.dbg.spill = alloca [16 x i8], align 8
  %self.dbg.spill = alloca [8 x i8], align 8
  %layout = alloca [16 x i8], align 8
  store ptr %self, ptr %self.dbg.spill, align 8
    #dbg_declare(ptr %self.dbg.spill, !3285, !DIExpression(), !3303)
    #dbg_declare(ptr %layout, !3300, !DIExpression(), !3304)
  %ptr.0 = load ptr, ptr %self, align 8, !dbg !3305
  %2 = getelementptr inbounds i8, ptr %self, i64 8, !dbg !3305
  %ptr.1 = load ptr, ptr %2, align 8, !dbg !3305
  store ptr %ptr.0, ptr %ptr.dbg.spill, align 8, !dbg !3305
  %3 = getelementptr inbounds i8, ptr %ptr.dbg.spill, i64 8, !dbg !3305
  store ptr %ptr.1, ptr %3, align 8, !dbg !3305
    #dbg_declare(ptr %ptr.dbg.spill, !3286, !DIExpression(), !3306)
    #dbg_declare(ptr %ptr.dbg.spill, !3307, !DIExpression(), !3314)
    #dbg_declare(ptr %ptr.dbg.spill, !3316, !DIExpression(), !3323)
  store ptr %ptr.0, ptr %t.dbg.spill, align 8, !dbg !3325
  %4 = getelementptr inbounds i8, ptr %t.dbg.spill, i64 8, !dbg !3325
  store ptr %ptr.1, ptr %4, align 8, !dbg !3325
    #dbg_declare(ptr %t.dbg.spill, !3326, !DIExpression(), !3335)
    #dbg_declare(ptr %t.dbg.spill, !3337, !DIExpression(), !3342)
    #dbg_declare(ptr %t.dbg.spill, !3344, !DIExpression(), !3347)
  %5 = getelementptr inbounds i8, ptr %ptr.1, i64 8, !dbg !3349
  %6 = load i64, ptr %5, align 8, !dbg !3349, !invariant.load !23
  %7 = getelementptr inbounds i8, ptr %ptr.1, i64 16, !dbg !3349
  %8 = load i64, ptr %7, align 8, !dbg !3349, !invariant.load !23
  store i64 %6, ptr %1, align 8, !dbg !3349
  %size = load i64, ptr %1, align 8, !dbg !3349
  store i64 %size, ptr %size.dbg.spill, align 8, !dbg !3349
    #dbg_declare(ptr %size.dbg.spill, !3332, !DIExpression(), !3350)
    #dbg_declare(ptr %size.dbg.spill, !3351, !DIExpression(), !3358)
  %9 = getelementptr inbounds i8, ptr %ptr.1, i64 8, !dbg !3360
  %10 = load i64, ptr %9, align 8, !dbg !3360, !invariant.load !23
  %11 = getelementptr inbounds i8, ptr %ptr.1, i64 16, !dbg !3360
  %12 = load i64, ptr %11, align 8, !dbg !3360, !invariant.load !23
  store i64 %12, ptr %0, align 8, !dbg !3360
  %align = load i64, ptr %0, align 8, !dbg !3360
  store i64 %align, ptr %align.dbg.spill, align 8, !dbg !3360
    #dbg_declare(ptr %align.dbg.spill, !3334, !DIExpression(), !3361)
    #dbg_declare(ptr %align.dbg.spill, !3357, !DIExpression(), !3362)
  br label %bb6, !dbg !3363

bb6:                                              ; preds = %start
; call core::alloc::layout::Layout::from_size_align_unchecked::precondition_check
  call void @_ZN4core5alloc6layout6Layout25from_size_align_unchecked18precondition_check17he8ce5612b16a19d2E(i64 %size, i64 %align, ptr align 8 @alloc_73f9238de114e9f561a763f00815f00e) #14, !dbg !3365
  br label %bb7, !dbg !3365

bb7:                                              ; preds = %bb6
  %13 = getelementptr inbounds i8, ptr %layout, i64 8, !dbg !3366
  store i64 %size, ptr %13, align 8, !dbg !3366
  store i64 %align, ptr %layout, align 8, !dbg !3366
  store ptr %layout, ptr %self.dbg.spill1, align 8, !dbg !3367
    #dbg_declare(ptr %self.dbg.spill1, !3368, !DIExpression(), !3371)
  %14 = icmp eq i64 %size, 0, !dbg !3367
  br i1 %14, label %bb3, label %bb1, !dbg !3367

bb3:                                              ; preds = %bb1, %bb7
  ret void, !dbg !3373

bb1:                                              ; preds = %bb7
  %_7 = getelementptr inbounds i8, ptr %self, i64 16, !dbg !3374
  store ptr %ptr.0, ptr %unique.dbg.spill, align 8, !dbg !3375
    #dbg_declare(ptr %unique.dbg.spill, !3381, !DIExpression(), !3387)
  %15 = load i64, ptr %layout, align 8, !dbg !3374
  %16 = getelementptr inbounds i8, ptr %layout, i64 8, !dbg !3374
  %17 = load i64, ptr %16, align 8, !dbg !3374
; call <alloc::alloc::Global as core::alloc::Allocator>::deallocate
  call void @"_ZN63_$LT$alloc..alloc..Global$u20$as$u20$core..alloc..Allocator$GT$10deallocate17hbd240c715012e592E"(ptr align 1 %_7, ptr %ptr.0, i64 %15, i64 %17), !dbg !3389
  br label %bb3, !dbg !3390
}

; <alloc::boxed::Box<T,A> as core::ops::drop::Drop>::drop
; Function Attrs: inlinehint nonlazybind uwtable
define internal void @"_ZN72_$LT$alloc..boxed..Box$LT$T$C$A$GT$$u20$as$u20$core..ops..drop..Drop$GT$4drop17haa8e3e3772770344E"(ptr align 8 %self) unnamed_addr #0 !dbg !3391 {
start:
  %unique.dbg.spill = alloca [8 x i8], align 8
  %self.dbg.spill1 = alloca [8 x i8], align 8
  %align.dbg.spill = alloca [8 x i8], align 8
  %0 = alloca [8 x i8], align 8
  %size.dbg.spill = alloca [8 x i8], align 8
  %1 = alloca [8 x i8], align 8
  %t.dbg.spill = alloca [8 x i8], align 8
  %ptr.dbg.spill = alloca [8 x i8], align 8
  %self.dbg.spill = alloca [8 x i8], align 8
  %layout = alloca [16 x i8], align 8
  store ptr %self, ptr %self.dbg.spill, align 8
    #dbg_declare(ptr %self.dbg.spill, !3396, !DIExpression(), !3411)
    #dbg_declare(ptr %layout, !3408, !DIExpression(), !3412)
  %ptr = load ptr, ptr %self, align 8, !dbg !3413
  store ptr %ptr, ptr %ptr.dbg.spill, align 8, !dbg !3413
    #dbg_declare(ptr %ptr.dbg.spill, !3397, !DIExpression(), !3414)
    #dbg_declare(ptr %ptr.dbg.spill, !3415, !DIExpression(), !3421)
    #dbg_declare(ptr %ptr.dbg.spill, !3423, !DIExpression(), !3430)
  store ptr %ptr, ptr %t.dbg.spill, align 8, !dbg !3432
    #dbg_declare(ptr %t.dbg.spill, !3433, !DIExpression(), !3442)
    #dbg_declare(ptr %t.dbg.spill, !3444, !DIExpression(), !3449)
    #dbg_declare(ptr %t.dbg.spill, !3451, !DIExpression(), !3454)
  store i64 24, ptr %1, align 8, !dbg !3456
  %size = load i64, ptr %1, align 8, !dbg !3456
  store i64 %size, ptr %size.dbg.spill, align 8, !dbg !3456
    #dbg_declare(ptr %size.dbg.spill, !3439, !DIExpression(), !3457)
    #dbg_declare(ptr %size.dbg.spill, !3458, !DIExpression(), !3462)
  store i64 8, ptr %0, align 8, !dbg !3464
  %align = load i64, ptr %0, align 8, !dbg !3464
  store i64 %align, ptr %align.dbg.spill, align 8, !dbg !3464
    #dbg_declare(ptr %align.dbg.spill, !3441, !DIExpression(), !3465)
    #dbg_declare(ptr %align.dbg.spill, !3461, !DIExpression(), !3466)
  br label %bb6, !dbg !3467

bb6:                                              ; preds = %start
; call core::alloc::layout::Layout::from_size_align_unchecked::precondition_check
  call void @_ZN4core5alloc6layout6Layout25from_size_align_unchecked18precondition_check17he8ce5612b16a19d2E(i64 %size, i64 %align, ptr align 8 @alloc_73f9238de114e9f561a763f00815f00e) #14, !dbg !3469
  br label %bb7, !dbg !3469

bb7:                                              ; preds = %bb6
  %2 = getelementptr inbounds i8, ptr %layout, i64 8, !dbg !3470
  store i64 %size, ptr %2, align 8, !dbg !3470
  store i64 %align, ptr %layout, align 8, !dbg !3470
  store ptr %layout, ptr %self.dbg.spill1, align 8, !dbg !3471
    #dbg_declare(ptr %self.dbg.spill1, !3472, !DIExpression(), !3475)
  %3 = icmp eq i64 %size, 0, !dbg !3471
  br i1 %3, label %bb3, label %bb1, !dbg !3471

bb3:                                              ; preds = %bb1, %bb7
  ret void, !dbg !3477

bb1:                                              ; preds = %bb7
  %_7 = getelementptr inbounds i8, ptr %self, i64 8, !dbg !3478
  store ptr %ptr, ptr %unique.dbg.spill, align 8, !dbg !3479
    #dbg_declare(ptr %unique.dbg.spill, !3485, !DIExpression(), !3488)
  %4 = load i64, ptr %layout, align 8, !dbg !3478
  %5 = getelementptr inbounds i8, ptr %layout, i64 8, !dbg !3478
  %6 = load i64, ptr %5, align 8, !dbg !3478
; call <alloc::alloc::Global as core::alloc::Allocator>::deallocate
  call void @"_ZN63_$LT$alloc..alloc..Global$u20$as$u20$core..alloc..Allocator$GT$10deallocate17hbd240c715012e592E"(ptr align 1 %_7, ptr %ptr, i64 %4, i64 %6), !dbg !3490
  br label %bb3, !dbg !3491
}

; <std::io::error::repr_bitpacked::Repr as core::ops::drop::Drop>::drop
; Function Attrs: inlinehint nonlazybind uwtable
define internal void @"_ZN78_$LT$std..io..error..repr_bitpacked..Repr$u20$as$u20$core..ops..drop..Drop$GT$4drop17h15d82583eeb8a52dE"(ptr align 8 %self) unnamed_addr #0 !dbg !3492 {
start:
  %self.dbg.spill = alloca [8 x i8], align 8
  %_2 = alloca [16 x i8], align 8
  store ptr %self, ptr %self.dbg.spill, align 8
    #dbg_declare(ptr %self.dbg.spill, !3497, !DIExpression(), !3498)
  %_3 = load ptr, ptr %self, align 8, !dbg !3499
; call std::io::error::repr_bitpacked::decode_repr
  call void @_ZN3std2io5error14repr_bitpacked11decode_repr17h036d8aff62719ca7E(ptr sret([16 x i8]) align 8 %_2, ptr %_3), !dbg !3500
; call core::ptr::drop_in_place<std::io::error::ErrorData<alloc::boxed::Box<std::io::error::Custom>>>
  call void @"_ZN4core3ptr101drop_in_place$LT$std..io..error..ErrorData$LT$alloc..boxed..Box$LT$std..io..error..Custom$GT$$GT$$GT$17h15d0fda21512c8e0E"(ptr align 8 %_2), !dbg !3501
  ret void, !dbg !3502
}

; <std::io::error::repr_bitpacked::Repr as core::ops::drop::Drop>::drop::{{closure}}
; Function Attrs: inlinehint nonlazybind uwtable
define internal align 8 ptr @"_ZN78_$LT$std..io..error..repr_bitpacked..Repr$u20$as$u20$core..ops..drop..Drop$GT$4drop28_$u7b$$u7b$closure$u7d$$u7d$17ha3614bb928e24746E"(ptr %p) unnamed_addr #0 !dbg !3503 {
start:
  %alloc.dbg.spill = alloca [0 x i8], align 1
  %p.dbg.spill = alloca [8 x i8], align 8
  %_1.dbg.spill = alloca [0 x i8], align 1
    #dbg_declare(ptr %_1.dbg.spill, !3508, !DIExpression(), !3509)
  store ptr %p, ptr %p.dbg.spill, align 8
    #dbg_declare(ptr %p.dbg.spill, !3507, !DIExpression(), !3510)
    #dbg_declare(ptr %p.dbg.spill, !3511, !DIExpression(), !3517)
    #dbg_declare(ptr %p.dbg.spill, !3519, !DIExpression(), !3526)
    #dbg_declare(ptr %p.dbg.spill, !3528, !DIExpression(), !3534)
    #dbg_declare(ptr %p.dbg.spill, !3536, !DIExpression(), !3542)
    #dbg_declare(ptr %alloc.dbg.spill, !3525, !DIExpression(), !3544)
  br label %bb1, !dbg !3545

bb1:                                              ; preds = %start
; call core::ptr::non_null::NonNull<T>::new_unchecked::precondition_check
  call void @"_ZN4core3ptr8non_null16NonNull$LT$T$GT$13new_unchecked18precondition_check17ha29951ea167855afE"(ptr %p, ptr align 8 @alloc_0bc17b14e462a5a757e896460b9f7225) #14, !dbg !3547
  br label %bb3, !dbg !3548

bb3:                                              ; preds = %bb1
  ret ptr %p, !dbg !3549
}

; dynamic::main
; Function Attrs: nonlazybind uwtable
define hidden void @_ZN7dynamic4main17h6bc5bc0f8707dddfE() unnamed_addr #1 personality ptr @rust_eh_personality !dbg !3550 {
start:
  %0 = alloca [16 x i8], align 8
  %t.dbg.spill.i1 = alloca [8 x i8], align 8
  %e.i2 = alloca [1 x i8], align 1
  %1 = alloca [16 x i8], align 8
  %t.dbg.spill.i = alloca [8 x i8], align 8
  %e.i = alloca [8 x i8], align 8
  %self.i = alloca [16 x i8], align 8
  %args.dbg.spill = alloca [16 x i8], align 8
  %2 = alloca [16 x i8], align 8
  %_24 = alloca [16 x i8], align 8
  %_23 = alloca [16 x i8], align 8
  %args = alloca [32 x i8], align 8
  %_17 = alloca [48 x i8], align 8
  %_12 = alloca [16 x i8], align 8
  %idx = alloca [8 x i8], align 8
  %_9 = alloca [8 x i8], align 8
  %input = alloca [24 x i8], align 8
  %_3 = alloca [48 x i8], align 8
  %arr = alloca [20 x i8], align 4
    #dbg_declare(ptr %arr, !3553, !DIExpression(), !3573)
    #dbg_declare(ptr %input, !3558, !DIExpression(), !3574)
    #dbg_declare(ptr %idx, !3560, !DIExpression(), !3575)
    #dbg_declare(ptr %args, !3570, !DIExpression(), !3576)
  %3 = getelementptr inbounds nuw i32, ptr %arr, i64 0, !dbg !3577
  store i32 10, ptr %3, align 4, !dbg !3577
  %4 = getelementptr inbounds nuw i32, ptr %arr, i64 1, !dbg !3577
  store i32 20, ptr %4, align 4, !dbg !3577
  %5 = getelementptr inbounds nuw i32, ptr %arr, i64 2, !dbg !3577
  store i32 30, ptr %5, align 4, !dbg !3577
  %6 = getelementptr inbounds nuw i32, ptr %arr, i64 3, !dbg !3577
  store i32 40, ptr %6, align 4, !dbg !3577
  %7 = getelementptr inbounds nuw i32, ptr %arr, i64 4, !dbg !3577
  store i32 50, ptr %7, align 4, !dbg !3577
; call core::fmt::rt::<impl core::fmt::Arguments>::new_const
  call void @"_ZN4core3fmt2rt38_$LT$impl$u20$core..fmt..Arguments$GT$9new_const17he3abd89f5cf2f7c6E"(ptr sret([48 x i8]) align 8 %_3, ptr align 8 @alloc_02aa2a2b13bfc37be163f6bdfdaaaf45), !dbg !3578
; call std::io::stdio::_print
  call void @_ZN3std2io5stdio6_print17h361a6d98ea723aceE(ptr align 8 %_3), !dbg !3578
; call alloc::string::String::new
  call void @_ZN5alloc6string6String3new17h8b4fd48d3358eb98E(ptr sret([24 x i8]) align 8 %input), !dbg !3579
; invoke std::io::stdio::stdin
  %8 = invoke align 8 ptr @_ZN3std2io5stdio5stdin17h098929a647404888E()
          to label %bb4 unwind label %cleanup, !dbg !3580

bb17:                                             ; preds = %cleanup.body
; invoke core::ptr::drop_in_place<alloc::string::String>
  invoke void @"_ZN4core3ptr42drop_in_place$LT$alloc..string..String$GT$17h4ca3b9897f0a7bdbE"(ptr align 8 %input) #17
          to label %bb18 unwind label %terminate, !dbg !3581

cleanup:                                          ; preds = %bb14, %bb13, %bb12, %bb11, %panic, %bb8, %bb7, %bb6, %bb4, %start
  %9 = landingpad { ptr, i32 }
          cleanup
  br label %cleanup.body8

cleanup.body8:                                    ; preds = %cleanup.i6, %cleanup
  %eh.lpad-body9 = phi { ptr, i32 } [ %9, %cleanup ], [ %45, %cleanup.i6 ]
  br label %cleanup.body

cleanup.body:                                     ; preds = %bb5.i, %cleanup.body8
  %eh.lpad-body = phi { ptr, i32 } [ %eh.lpad-body9, %cleanup.body8 ], [ %29, %bb5.i ]
  %10 = extractvalue { ptr, i32 } %eh.lpad-body, 0
  %11 = extractvalue { ptr, i32 } %eh.lpad-body, 1
  store ptr %10, ptr %2, align 8
  %12 = getelementptr inbounds i8, ptr %2, i64 8
  store i32 %11, ptr %12, align 8
  br label %bb17

bb4:                                              ; preds = %start
  store ptr %8, ptr %_9, align 8, !dbg !3580
; invoke std::io::stdio::Stdin::read_line
  %13 = invoke { i64, ptr } @_ZN3std2io5stdio5Stdin9read_line17h904ff10c15f35ae9E(ptr align 8 %_9, ptr align 8 %input)
          to label %bb5 unwind label %cleanup, !dbg !3582

bb5:                                              ; preds = %bb4
  %_7.0 = extractvalue { i64, ptr } %13, 0, !dbg !3580
  %_7.1 = extractvalue { i64, ptr } %13, 1, !dbg !3580
  store i64 %_7.0, ptr %self.i, align 8
  %14 = getelementptr inbounds i8, ptr %self.i, i64 8
  store ptr %_7.1, ptr %14, align 8
    #dbg_declare(ptr %self.i, !3583, !DIExpression(), !3608)
    #dbg_declare(ptr %e.i, !3606, !DIExpression(), !3610)
  %_2.i = load i64, ptr %self.i, align 8, !dbg !3611
  %15 = getelementptr inbounds i8, ptr %self.i, i64 8, !dbg !3611
  %16 = load ptr, ptr %15, align 8, !dbg !3611
  %17 = trunc nuw i64 %_2.i to i1, !dbg !3612
  br i1 %17, label %bb2.i, label %"_ZN4core6result19Result$LT$T$C$E$GT$6unwrap17h32d55eec4a2f8780E.exit", !dbg !3612

bb2.i:                                            ; preds = %bb5
  %18 = getelementptr inbounds i8, ptr %self.i, i64 8, !dbg !3613
  %19 = load ptr, ptr %18, align 8, !dbg !3613
  store ptr %19, ptr %e.i, align 8, !dbg !3613
; invoke core::result::unwrap_failed
  invoke void @_ZN4core6result13unwrap_failed17h0501379eaec3e720E(ptr align 1 @alloc_00ae4b301f7fab8ac9617c03fcbd7274, i64 43, ptr align 1 %e.i, ptr align 8 @vtable.1, ptr align 8 @alloc_4f7c59be0e9e6c2a5aabde5b052d1f9c) #15
          to label %unreachable.i unwind label %cleanup.i, !dbg !3614

cleanup.i:                                        ; preds = %bb2.i
  %20 = landingpad { ptr, i32 }
          cleanup
  %21 = extractvalue { ptr, i32 } %20, 0
  %22 = extractvalue { ptr, i32 } %20, 1
  store ptr %21, ptr %1, align 8
  %23 = getelementptr inbounds i8, ptr %1, i64 8
  store i32 %22, ptr %23, align 8
; invoke core::ptr::drop_in_place<std::io::error::Error>
  invoke void @"_ZN4core3ptr42drop_in_place$LT$std..io..error..Error$GT$17haabbf6999498c076E"(ptr align 8 %e.i) #17
          to label %bb5.i unwind label %terminate.i, !dbg !3615

unreachable.i:                                    ; preds = %bb2.i
  unreachable

terminate.i:                                      ; preds = %cleanup.i
  %24 = landingpad { ptr, i32 }
          cleanup
          filter [0 x ptr] zeroinitializer
; call core::panicking::panic_in_cleanup
  call void @_ZN4core9panicking16panic_in_cleanup17h5eff40bcc4481d72E() #18, !dbg !3616
  unreachable, !dbg !3616

bb5.i:                                            ; preds = %cleanup.i
  %25 = load ptr, ptr %1, align 8, !dbg !3616
  %26 = getelementptr inbounds i8, ptr %1, i64 8, !dbg !3616
  %27 = load i32, ptr %26, align 8, !dbg !3616
  %28 = insertvalue { ptr, i32 } poison, ptr %25, 0, !dbg !3616
  %29 = insertvalue { ptr, i32 } %28, i32 %27, 1, !dbg !3616
  br label %cleanup.body, !dbg !3616

"_ZN4core6result19Result$LT$T$C$E$GT$6unwrap17h32d55eec4a2f8780E.exit": ; preds = %bb5
  %30 = getelementptr inbounds i8, ptr %self.i, i64 8, !dbg !3617
  %t.i = load i64, ptr %30, align 8, !dbg !3617
  store i64 %t.i, ptr %t.dbg.spill.i, align 8, !dbg !3617
    #dbg_declare(ptr %t.dbg.spill.i, !3604, !DIExpression(), !3618)
  br label %bb6, !dbg !3619

bb6:                                              ; preds = %"_ZN4core6result19Result$LT$T$C$E$GT$6unwrap17h32d55eec4a2f8780E.exit"
; invoke <alloc::string::String as core::ops::deref::Deref>::deref
  %31 = invoke { ptr, i64 } @"_ZN65_$LT$alloc..string..String$u20$as$u20$core..ops..deref..Deref$GT$5deref17h17f5ac8fa6f5a376E"(ptr align 8 %input)
          to label %bb7 unwind label %cleanup, !dbg !3620

bb7:                                              ; preds = %bb6
  %_14.0 = extractvalue { ptr, i64 } %31, 0, !dbg !3620
  %_14.1 = extractvalue { ptr, i64 } %31, 1, !dbg !3620
; invoke core::str::<impl str>::trim
  %32 = invoke { ptr, i64 } @"_ZN4core3str21_$LT$impl$u20$str$GT$4trim17h73afe0cefd2f48dcE"(ptr align 1 %_14.0, i64 %_14.1)
          to label %bb8 unwind label %cleanup, !dbg !3621

bb8:                                              ; preds = %bb7
  %_13.0 = extractvalue { ptr, i64 } %32, 0, !dbg !3620
  %_13.1 = extractvalue { ptr, i64 } %32, 1, !dbg !3620
; invoke core::str::<impl str>::parse
  invoke void @"_ZN4core3str21_$LT$impl$u20$str$GT$5parse17h24dbb4bbc0714afdE"(ptr sret([16 x i8]) align 8 %_12, ptr align 1 %_13.0, i64 %_13.1)
          to label %bb9 unwind label %cleanup, !dbg !3622

bb9:                                              ; preds = %bb8
    #dbg_declare(ptr %_12, !3623, !DIExpression(), !3633)
    #dbg_declare(ptr %e.i2, !3631, !DIExpression(), !3635)
  %33 = load i8, ptr %_12, align 8, !dbg !3636
  %34 = trunc nuw i8 %33 to i1, !dbg !3636
  %_2.i3 = zext i1 %34 to i64, !dbg !3636
  br i1 %34, label %bb2.i5, label %"_ZN4core6result19Result$LT$T$C$E$GT$6unwrap17h7f7e80f0d4612b05E.exit", !dbg !3637

bb2.i5:                                           ; preds = %bb9
  %35 = getelementptr inbounds i8, ptr %_12, i64 1, !dbg !3638
  %36 = load i8, ptr %35, align 1, !dbg !3638
  store i8 %36, ptr %e.i2, align 1, !dbg !3638
; invoke core::result::unwrap_failed
  invoke void @_ZN4core6result13unwrap_failed17h0501379eaec3e720E(ptr align 1 @alloc_00ae4b301f7fab8ac9617c03fcbd7274, i64 43, ptr align 1 %e.i2, ptr align 8 @vtable.2, ptr align 8 @alloc_69b581a9cd327bc90a5fd6ab0f582b95) #15
          to label %unreachable.i7 unwind label %cleanup.i6, !dbg !3639

cleanup.i6:                                       ; preds = %bb2.i5
  %37 = landingpad { ptr, i32 }
          cleanup
  %38 = extractvalue { ptr, i32 } %37, 0
  %39 = extractvalue { ptr, i32 } %37, 1
  store ptr %38, ptr %0, align 8
  %40 = getelementptr inbounds i8, ptr %0, i64 8
  store i32 %39, ptr %40, align 8
  %41 = load ptr, ptr %0, align 8, !dbg !3640
  %42 = getelementptr inbounds i8, ptr %0, i64 8, !dbg !3640
  %43 = load i32, ptr %42, align 8, !dbg !3640
  %44 = insertvalue { ptr, i32 } poison, ptr %41, 0, !dbg !3640
  %45 = insertvalue { ptr, i32 } %44, i32 %43, 1, !dbg !3640
  br label %cleanup.body8, !dbg !3640

unreachable.i7:                                   ; preds = %bb2.i5
  unreachable

"_ZN4core6result19Result$LT$T$C$E$GT$6unwrap17h7f7e80f0d4612b05E.exit": ; preds = %bb9
  %46 = getelementptr inbounds i8, ptr %_12, i64 8, !dbg !3641
  %t.i4 = load i64, ptr %46, align 8, !dbg !3641
  store i64 %t.i4, ptr %t.dbg.spill.i1, align 8, !dbg !3641
    #dbg_declare(ptr %t.dbg.spill.i1, !3629, !DIExpression(), !3642)
  br label %bb10, !dbg !3643

bb10:                                             ; preds = %"_ZN4core6result19Result$LT$T$C$E$GT$6unwrap17h7f7e80f0d4612b05E.exit"
  store i64 %t.i4, ptr %idx, align 8, !dbg !3620
  %47 = load i64, ptr %idx, align 8, !dbg !3644
  %_21 = icmp ult i64 %47, 5, !dbg !3644
  br i1 %_21, label %bb11, label %panic, !dbg !3644

bb11:                                             ; preds = %bb10
  %48 = load i64, ptr %idx, align 8, !dbg !3645
  %_20 = getelementptr inbounds nuw i32, ptr %arr, i64 %48, !dbg !3645
  store ptr %idx, ptr %args.dbg.spill, align 8, !dbg !3645
  %49 = getelementptr inbounds i8, ptr %args.dbg.spill, i64 8, !dbg !3645
  store ptr %_20, ptr %49, align 8, !dbg !3645
    #dbg_declare(ptr %args.dbg.spill, !3562, !DIExpression(), !3646)
; invoke core::fmt::rt::Argument::new_display
  invoke void @_ZN4core3fmt2rt8Argument11new_display17hca9c2967ca7abe86E(ptr sret([16 x i8]) align 8 %_23, ptr align 8 %idx)
          to label %bb12 unwind label %cleanup, !dbg !3646

panic:                                            ; preds = %bb10
  %50 = load i64, ptr %idx, align 8, !dbg !3644
; invoke core::panicking::panic_bounds_check
  invoke void @_ZN4core9panicking18panic_bounds_check17hbc09f5d79f1a5789E(i64 %50, i64 5, ptr align 8 @alloc_3d0e4a3a73847fef13a56cc677ef6ac0) #15
          to label %unreachable unwind label %cleanup, !dbg !3644

unreachable:                                      ; preds = %panic
  unreachable

bb12:                                             ; preds = %bb11
; invoke core::fmt::rt::Argument::new_display
  invoke void @_ZN4core3fmt2rt8Argument11new_display17hf813ef35622ef23eE(ptr sret([16 x i8]) align 8 %_24, ptr align 4 %_20)
          to label %bb13 unwind label %cleanup, !dbg !3646

bb13:                                             ; preds = %bb12
  %51 = getelementptr inbounds nuw %"core::fmt::rt::Argument<'_>", ptr %args, i64 0, !dbg !3646
  call void @llvm.memcpy.p0.p0.i64(ptr align 8 %51, ptr align 8 %_23, i64 16, i1 false), !dbg !3646
  %52 = getelementptr inbounds nuw %"core::fmt::rt::Argument<'_>", ptr %args, i64 1, !dbg !3646
  call void @llvm.memcpy.p0.p0.i64(ptr align 8 %52, ptr align 8 %_24, i64 16, i1 false), !dbg !3646
; invoke core::fmt::rt::<impl core::fmt::Arguments>::new_v1
  invoke void @"_ZN4core3fmt2rt38_$LT$impl$u20$core..fmt..Arguments$GT$6new_v117ha31bb10b052bd0e3E"(ptr sret([48 x i8]) align 8 %_17, ptr align 8 @alloc_9dbc8530e7c00a3264d046557416dcee, ptr align 8 %args)
          to label %bb14 unwind label %cleanup, !dbg !3576

bb14:                                             ; preds = %bb13
; invoke std::io::stdio::_print
  invoke void @_ZN3std2io5stdio6_print17h361a6d98ea723aceE(ptr align 8 %_17)
          to label %bb15 unwind label %cleanup, !dbg !3645

bb15:                                             ; preds = %bb14
; call core::ptr::drop_in_place<alloc::string::String>
  call void @"_ZN4core3ptr42drop_in_place$LT$alloc..string..String$GT$17h4ca3b9897f0a7bdbE"(ptr align 8 %input), !dbg !3581
  ret void, !dbg !3647

terminate:                                        ; preds = %bb17
  %53 = landingpad { ptr, i32 }
          filter [0 x ptr] zeroinitializer
; call core::panicking::panic_in_cleanup
  call void @_ZN4core9panicking16panic_in_cleanup17h5eff40bcc4481d72E() #18, !dbg !3648
  unreachable, !dbg !3648

bb18:                                             ; preds = %bb17
  %54 = load ptr, ptr %2, align 8, !dbg !3648
  %55 = getelementptr inbounds i8, ptr %2, i64 8, !dbg !3648
  %56 = load i32, ptr %55, align 8, !dbg !3648
  %57 = insertvalue { ptr, i32 } poison, ptr %54, 0, !dbg !3648
  %58 = insertvalue { ptr, i32 } %57, i32 %56, 1, !dbg !3648
  resume { ptr, i32 } %58, !dbg !3648
}

; <core::str::iter::CharIndices as core::iter::traits::iterator::Iterator>::next
; Function Attrs: inlinehint nonlazybind uwtable
define internal { i64, i32 } @"_ZN87_$LT$core..str..iter..CharIndices$u20$as$u20$core..iter..traits..iterator..Iterator$GT$4next17h4ad13ac404376b71E"(ptr align 8 %self) unnamed_addr #0 !dbg !3649 {
start:
  %len.dbg.spill = alloca [8 x i8], align 8
  %end.dbg.spill5 = alloca [8 x i8], align 8
  %self.dbg.spill4 = alloca [8 x i8], align 8
  %index.dbg.spill = alloca [8 x i8], align 8
  %ch.dbg.spill = alloca [4 x i8], align 4
  %x.dbg.spill = alloca [4 x i8], align 4
  %self.dbg.spill3 = alloca [8 x i8], align 8
  %pre_len.dbg.spill = alloca [8 x i8], align 8
  %end.dbg.spill = alloca [8 x i8], align 8
  %self.dbg.spill2 = alloca [8 x i8], align 8
  %f.dbg.spill = alloca [0 x i8], align 1
  %self.dbg.spill = alloca [8 x i8], align 8
  %self1 = alloca [8 x i8], align 4
  %_4 = alloca [4 x i8], align 4
  %_0 = alloca [16 x i8], align 8
  store ptr %self, ptr %self.dbg.spill, align 8
    #dbg_declare(ptr %self.dbg.spill, !3652, !DIExpression(), !3661)
    #dbg_declare(ptr %self1, !3662, !DIExpression(), !3676)
    #dbg_declare(ptr %f.dbg.spill, !3673, !DIExpression(), !3682)
  store ptr %self, ptr %self.dbg.spill2, align 8, !dbg !3683
    #dbg_declare(ptr %self.dbg.spill2, !3684, !DIExpression(), !3695)
  %0 = getelementptr inbounds i8, ptr %self, i64 8, !dbg !3697
  %_15 = load ptr, ptr %0, align 8, !dbg !3697
  store ptr %_15, ptr %end.dbg.spill, align 8, !dbg !3698
    #dbg_declare(ptr %end.dbg.spill, !3689, !DIExpression(), !3699)
  %_16 = load ptr, ptr %self, align 8, !dbg !3700
; call core::ptr::non_null::NonNull<T>::offset_from_unsigned
  %pre_len = call i64 @"_ZN4core3ptr8non_null16NonNull$LT$T$GT$20offset_from_unsigned17hda8e6fe9f99a2b63E"(ptr %_15, ptr %_16), !dbg !3701
  store i64 %pre_len, ptr %pre_len.dbg.spill, align 8, !dbg !3701
    #dbg_declare(ptr %pre_len.dbg.spill, !3653, !DIExpression(), !3702)
  store ptr %self, ptr %self.dbg.spill3, align 8, !dbg !3703
    #dbg_declare(ptr %self.dbg.spill3, !3680, !DIExpression(), !3704)
; call core::str::validations::next_code_point
  %1 = call { i32, i32 } @_ZN4core3str11validations15next_code_point17hbc038c8a07ce5452E(ptr align 8 %self), !dbg !3705
  %2 = extractvalue { i32, i32 } %1, 0, !dbg !3705
  %3 = extractvalue { i32, i32 } %1, 1, !dbg !3705
  store i32 %2, ptr %self1, align 4, !dbg !3705
  %4 = getelementptr inbounds i8, ptr %self1, i64 4, !dbg !3705
  store i32 %3, ptr %4, align 4, !dbg !3705
  %5 = load i32, ptr %self1, align 4, !dbg !3706
  %6 = getelementptr inbounds i8, ptr %self1, i64 4, !dbg !3706
  %7 = load i32, ptr %6, align 4, !dbg !3706
  %_19 = zext i32 %5 to i64, !dbg !3706
  %8 = trunc nuw i64 %_19 to i1, !dbg !3707
  br i1 %8, label %bb6, label %bb5, !dbg !3707

bb6:                                              ; preds = %start
  %9 = getelementptr inbounds i8, ptr %self1, i64 4, !dbg !3708
  %x = load i32, ptr %9, align 4, !dbg !3708
  store i32 %x, ptr %x.dbg.spill, align 4, !dbg !3708
    #dbg_declare(ptr %x.dbg.spill, !3674, !DIExpression(), !3709)
    #dbg_declare(ptr %x.dbg.spill, !3710, !DIExpression(), !3715)
    #dbg_declare(ptr %x.dbg.spill, !3717, !DIExpression(), !3720)
    #dbg_declare(ptr %x.dbg.spill, !3722, !DIExpression(), !3725)
  br label %bb7, !dbg !3727

bb5:                                              ; preds = %start
  %10 = load i64, ptr @anon.17a64ccdb0dd3b2223636ea1105fd72b.0, align 8, !dbg !3729
  %11 = load i32, ptr getelementptr inbounds (i8, ptr @anon.17a64ccdb0dd3b2223636ea1105fd72b.0, i64 8), align 8, !dbg !3729
  store i64 %10, ptr %_0, align 8, !dbg !3729
  %12 = getelementptr inbounds i8, ptr %_0, i64 8, !dbg !3729
  store i32 %11, ptr %12, align 8, !dbg !3729
  br label %bb2, !dbg !3729

bb2:                                              ; preds = %bb8, %bb5
  %13 = load i64, ptr %_0, align 8, !dbg !3730
  %14 = getelementptr inbounds i8, ptr %_0, i64 8, !dbg !3730
  %15 = load i32, ptr %14, align 8, !dbg !3730
  %16 = insertvalue { i64, i32 } poison, i64 %13, 0, !dbg !3730
  %17 = insertvalue { i64, i32 } %16, i32 %15, 1, !dbg !3730
  ret { i64, i32 } %17, !dbg !3730

bb7:                                              ; preds = %bb6
; call core::char::convert::from_u32_unchecked::precondition_check
  call void @_ZN4core4char7convert18from_u32_unchecked18precondition_check17h8be9a9896a02b6fcE(i32 %x, ptr align 8 @alloc_2925e2a6c2ac77848dfa2a589f28dc35) #14, !dbg !3731
  br label %bb8, !dbg !3731

bb8:                                              ; preds = %bb7
  store i32 %x, ptr %_4, align 4, !dbg !3732
  %ch = load i32, ptr %_4, align 4, !dbg !3733
  store i32 %ch, ptr %ch.dbg.spill, align 4, !dbg !3733
    #dbg_declare(ptr %ch.dbg.spill, !3655, !DIExpression(), !3734)
  %18 = getelementptr inbounds i8, ptr %self, i64 16, !dbg !3735
  %index = load i64, ptr %18, align 8, !dbg !3735
  store i64 %index, ptr %index.dbg.spill, align 8, !dbg !3735
    #dbg_declare(ptr %index.dbg.spill, !3657, !DIExpression(), !3736)
  store ptr %self, ptr %self.dbg.spill4, align 8, !dbg !3737
    #dbg_declare(ptr %self.dbg.spill4, !3684, !DIExpression(), !3738)
  %19 = getelementptr inbounds i8, ptr %self, i64 8, !dbg !3740
  %_27 = load ptr, ptr %19, align 8, !dbg !3740
  store ptr %_27, ptr %end.dbg.spill5, align 8, !dbg !3741
    #dbg_declare(ptr %end.dbg.spill5, !3693, !DIExpression(), !3742)
  %_28 = load ptr, ptr %self, align 8, !dbg !3743
; call core::ptr::non_null::NonNull<T>::offset_from_unsigned
  %len = call i64 @"_ZN4core3ptr8non_null16NonNull$LT$T$GT$20offset_from_unsigned17hda8e6fe9f99a2b63E"(ptr %_27, ptr %_28), !dbg !3744
  store i64 %len, ptr %len.dbg.spill, align 8, !dbg !3744
    #dbg_declare(ptr %len.dbg.spill, !3659, !DIExpression(), !3745)
  %_10 = sub i64 %pre_len, %len, !dbg !3746
  %20 = getelementptr inbounds i8, ptr %self, i64 16, !dbg !3747
  %21 = getelementptr inbounds i8, ptr %self, i64 16, !dbg !3747
  %22 = load i64, ptr %21, align 8, !dbg !3747
  %23 = add i64 %22, %_10, !dbg !3747
  store i64 %23, ptr %20, align 8, !dbg !3747
  store i64 %index, ptr %_0, align 8, !dbg !3748
  %24 = getelementptr inbounds i8, ptr %_0, i64 8, !dbg !3748
  store i32 %ch, ptr %24, align 8, !dbg !3748
  br label %bb2, !dbg !3749

bb1:                                              ; No predecessors!
  unreachable, !dbg !3750
}

; <core::slice::iter::Iter<T> as core::iter::traits::iterator::Iterator>::next
; Function Attrs: inlinehint nonlazybind uwtable
define internal align 1 ptr @"_ZN91_$LT$core..slice..iter..Iter$LT$T$GT$$u20$as$u20$core..iter..traits..iterator..Iterator$GT$4next17h15ba6c7b628e237fE"(ptr align 8 %self) unnamed_addr #0 !dbg !3752 {
start:
  %self.dbg.spill2 = alloca [8 x i8], align 8
  %other.dbg.spill = alloca [8 x i8], align 8
  %self.dbg.spill1 = alloca [8 x i8], align 8
  %end_or_len.dbg.spill = alloca [8 x i8], align 8
  %count.dbg.spill = alloca [8 x i8], align 8
  %rhs.dbg.spill = alloca [8 x i8], align 8
  %self.dbg.spill = alloca [8 x i8], align 8
  %_13 = alloca [8 x i8], align 8
  %_9 = alloca [8 x i8], align 8
  %ptr = alloca [8 x i8], align 8
  %_0 = alloca [8 x i8], align 8
  store ptr %self, ptr %self.dbg.spill, align 8
    #dbg_declare(ptr %self.dbg.spill, !3755, !DIExpression(), !3762)
    #dbg_declare(ptr %ptr, !3756, !DIExpression(), !3763)
    #dbg_declare(ptr %ptr, !3764, !DIExpression(), !3769)
  store i64 1, ptr %rhs.dbg.spill, align 8, !dbg !3771
    #dbg_declare(ptr %rhs.dbg.spill, !3777, !DIExpression(), !3771)
  store i64 1, ptr %count.dbg.spill, align 8, !dbg !3779
    #dbg_declare(ptr %count.dbg.spill, !3768, !DIExpression(), !3779)
  %0 = load ptr, ptr %self, align 8, !dbg !3780
  store ptr %0, ptr %ptr, align 8, !dbg !3780
  %1 = getelementptr inbounds i8, ptr %self, i64 8, !dbg !3781
  %end_or_len = load ptr, ptr %1, align 8, !dbg !3781
  store ptr %end_or_len, ptr %end_or_len.dbg.spill, align 8, !dbg !3781
    #dbg_declare(ptr %end_or_len.dbg.spill, !3758, !DIExpression(), !3782)
    #dbg_declare(ptr %end_or_len.dbg.spill, !3783, !DIExpression(), !3786)
    #dbg_declare(ptr %end_or_len.dbg.spill, !3788, !DIExpression(), !3793)
  br label %bb4, !dbg !3795

bb4:                                              ; preds = %start
  store ptr %ptr, ptr %self.dbg.spill1, align 8, !dbg !3796
    #dbg_declare(ptr %self.dbg.spill1, !3797, !DIExpression(), !3801)
  store ptr %end_or_len, ptr %_9, align 8, !dbg !3802
  store ptr %_9, ptr %other.dbg.spill, align 8, !dbg !3802
    #dbg_declare(ptr %other.dbg.spill, !3800, !DIExpression(), !3803)
  %_16 = load ptr, ptr %ptr, align 8, !dbg !3804
  %_17 = load ptr, ptr %_9, align 8, !dbg !3807
  %_6 = icmp eq ptr %_16, %_17, !dbg !3809
  br i1 %_6, label %bb5, label %bb6, !dbg !3796

bb6:                                              ; preds = %bb4
  %_19 = load ptr, ptr %ptr, align 8, !dbg !3810
  %_18 = getelementptr inbounds nuw i8, ptr %_19, i64 1, !dbg !3811
  store ptr %_18, ptr %self, align 8, !dbg !3812
  br label %bb7, !dbg !3813

bb5:                                              ; preds = %bb4
  store ptr null, ptr %_0, align 8, !dbg !3814
  br label %bb8, !dbg !3815

bb7:                                              ; preds = %bb6
  %2 = load ptr, ptr %ptr, align 8, !dbg !3817
  store ptr %2, ptr %_13, align 8, !dbg !3817
  store ptr %_13, ptr %self.dbg.spill2, align 8, !dbg !3818
    #dbg_declare(ptr %self.dbg.spill2, !3819, !DIExpression(), !3822)
  %_20 = load ptr, ptr %ptr, align 8, !dbg !3824
  store ptr %_20, ptr %_0, align 8, !dbg !3829
  br label %bb9, !dbg !3830

bb9:                                              ; preds = %bb8, %bb7
  %3 = load ptr, ptr %_0, align 8, !dbg !3830
  ret ptr %3, !dbg !3830

bb8:                                              ; preds = %bb5
  br label %bb9, !dbg !3830

bb1:                                              ; No predecessors!
  unreachable

bb2:                                              ; No predecessors!
  unreachable

bb3:                                              ; No predecessors!
  unreachable

bb10:                                             ; No predecessors!
  unreachable

bb11:                                             ; No predecessors!
  unreachable
}

; <core::str::pattern::MultiCharEqPattern<C> as core::str::pattern::Pattern>::into_searcher
; Function Attrs: inlinehint nonlazybind uwtable
define internal void @"_ZN95_$LT$core..str..pattern..MultiCharEqPattern$LT$C$GT$$u20$as$u20$core..str..pattern..Pattern$GT$13into_searcher17hfc671d246a7e258cE"(ptr sret([40 x i8]) align 8 %_0, ptr align 1 %haystack.0, i64 %haystack.1) unnamed_addr #0 personality ptr @rust_eh_personality !dbg !3831 {
start:
  %0 = alloca [16 x i8], align 8
  %haystack.dbg.spill = alloca [16 x i8], align 8
  %self.dbg.spill = alloca [0 x i8], align 1
  %_4 = alloca [24 x i8], align 8
    #dbg_declare(ptr %self.dbg.spill, !3839, !DIExpression(), !3841)
  store ptr %haystack.0, ptr %haystack.dbg.spill, align 8
  %1 = getelementptr inbounds i8, ptr %haystack.dbg.spill, i64 8
  store i64 %haystack.1, ptr %1, align 8
    #dbg_declare(ptr %haystack.dbg.spill, !3840, !DIExpression(), !3842)
    #dbg_declare(ptr %haystack.dbg.spill, !3843, !DIExpression(), !3848)
; invoke core::str::<impl str>::chars
  %2 = invoke { ptr, ptr } @"_ZN4core3str21_$LT$impl$u20$str$GT$5chars17h666c553a33540dc1E"(ptr align 1 %haystack.0, i64 %haystack.1)
          to label %bb3 unwind label %cleanup, !dbg !3850

bb1:                                              ; preds = %cleanup
  %3 = load ptr, ptr %0, align 8, !dbg !3851
  %4 = getelementptr inbounds i8, ptr %0, i64 8, !dbg !3851
  %5 = load i32, ptr %4, align 8, !dbg !3851
  %6 = insertvalue { ptr, i32 } poison, ptr %3, 0, !dbg !3851
  %7 = insertvalue { ptr, i32 } %6, i32 %5, 1, !dbg !3851
  resume { ptr, i32 } %7, !dbg !3851

cleanup:                                          ; preds = %start
  %8 = landingpad { ptr, i32 }
          cleanup
  %9 = extractvalue { ptr, i32 } %8, 0
  %10 = extractvalue { ptr, i32 } %8, 1
  store ptr %9, ptr %0, align 8
  %11 = getelementptr inbounds i8, ptr %0, i64 8
  store i32 %10, ptr %11, align 8
  br label %bb1

bb3:                                              ; preds = %start
  %_5.0 = extractvalue { ptr, ptr } %2, 0, !dbg !3852
  %_5.1 = extractvalue { ptr, ptr } %2, 1, !dbg !3852
  %12 = getelementptr inbounds i8, ptr %_4, i64 16, !dbg !3853
  store i64 0, ptr %12, align 8, !dbg !3853
  store ptr %_5.0, ptr %_4, align 8, !dbg !3853
  %13 = getelementptr inbounds i8, ptr %_4, i64 8, !dbg !3853
  store ptr %_5.1, ptr %13, align 8, !dbg !3853
  store ptr %haystack.0, ptr %_0, align 8, !dbg !3854
  %14 = getelementptr inbounds i8, ptr %_0, i64 8, !dbg !3854
  store i64 %haystack.1, ptr %14, align 8, !dbg !3854
  %15 = getelementptr inbounds i8, ptr %_0, i64 16, !dbg !3854
  call void @llvm.memcpy.p0.p0.i64(ptr align 8 %15, ptr align 8 %_4, i64 24, i1 false), !dbg !3854
  ret void, !dbg !3855
}

; <core::str::pattern::MultiCharEqSearcher<C> as core::str::pattern::Searcher>::next
; Function Attrs: inlinehint nonlazybind uwtable
define internal void @"_ZN97_$LT$core..str..pattern..MultiCharEqSearcher$LT$C$GT$$u20$as$u20$core..str..pattern..Searcher$GT$4next17hf9b964a00c59d7ebE"(ptr sret([24 x i8]) align 8 %_0, ptr align 8 %self) unnamed_addr #0 !dbg !3856 {
start:
  %char_len.dbg.spill = alloca [8 x i8], align 8
  %len.dbg.spill = alloca [8 x i8], align 8
  %end.dbg.spill3 = alloca [8 x i8], align 8
  %self.dbg.spill2 = alloca [8 x i8], align 8
  %c.dbg.spill = alloca [4 x i8], align 4
  %i.dbg.spill = alloca [8 x i8], align 8
  %pre_len.dbg.spill = alloca [8 x i8], align 8
  %end.dbg.spill = alloca [8 x i8], align 8
  %self.dbg.spill1 = alloca [8 x i8], align 8
  %s.dbg.spill = alloca [8 x i8], align 8
  %self.dbg.spill = alloca [8 x i8], align 8
  %_5 = alloca [16 x i8], align 8
  store ptr %self, ptr %self.dbg.spill, align 8
    #dbg_declare(ptr %self.dbg.spill, !3859, !DIExpression(), !3871)
  %s = getelementptr inbounds i8, ptr %self, i64 16, !dbg !3872
  store ptr %s, ptr %s.dbg.spill, align 8, !dbg !3872
    #dbg_declare(ptr %s.dbg.spill, !3860, !DIExpression(), !3873)
  store ptr %s, ptr %self.dbg.spill1, align 8, !dbg !3874
    #dbg_declare(ptr %self.dbg.spill1, !3875, !DIExpression(), !3886)
  %0 = getelementptr inbounds i8, ptr %s, i64 8, !dbg !3888
  %_19 = load ptr, ptr %0, align 8, !dbg !3888
  store ptr %_19, ptr %end.dbg.spill, align 8, !dbg !3889
    #dbg_declare(ptr %end.dbg.spill, !3880, !DIExpression(), !3890)
  %_20 = load ptr, ptr %s, align 8, !dbg !3891
; call core::ptr::non_null::NonNull<T>::offset_from_unsigned
  %pre_len = call i64 @"_ZN4core3ptr8non_null16NonNull$LT$T$GT$20offset_from_unsigned17hda8e6fe9f99a2b63E"(ptr %_19, ptr %_20), !dbg !3892
  store i64 %pre_len, ptr %pre_len.dbg.spill, align 8, !dbg !3892
    #dbg_declare(ptr %pre_len.dbg.spill, !3862, !DIExpression(), !3893)
; call <core::str::iter::CharIndices as core::iter::traits::iterator::Iterator>::next
  %1 = call { i64, i32 } @"_ZN87_$LT$core..str..iter..CharIndices$u20$as$u20$core..iter..traits..iterator..Iterator$GT$4next17h4ad13ac404376b71E"(ptr align 8 %s), !dbg !3894
  %2 = extractvalue { i64, i32 } %1, 0, !dbg !3894
  %3 = extractvalue { i64, i32 } %1, 1, !dbg !3894
  store i64 %2, ptr %_5, align 8, !dbg !3894
  %4 = getelementptr inbounds i8, ptr %_5, i64 8, !dbg !3894
  store i32 %3, ptr %4, align 8, !dbg !3894
  %5 = load i64, ptr %_5, align 8, !dbg !3895
  %6 = getelementptr inbounds i8, ptr %_5, i64 8, !dbg !3895
  %7 = load i32, ptr %6, align 8, !dbg !3895
  %8 = icmp eq i32 %7, 1114112, !dbg !3895
  %_6 = select i1 %8, i64 0, i64 1, !dbg !3895
  %9 = trunc nuw i64 %_6 to i1, !dbg !3896
  br i1 %9, label %bb2, label %bb6, !dbg !3896

bb2:                                              ; preds = %start
  %i = load i64, ptr %_5, align 8, !dbg !3897
  store i64 %i, ptr %i.dbg.spill, align 8, !dbg !3897
    #dbg_declare(ptr %i.dbg.spill, !3864, !DIExpression(), !3897)
  %10 = getelementptr inbounds i8, ptr %_5, i64 8, !dbg !3898
  %c = load i32, ptr %10, align 8, !dbg !3898
  store i32 %c, ptr %c.dbg.spill, align 4, !dbg !3898
    #dbg_declare(ptr %c.dbg.spill, !3866, !DIExpression(), !3898)
  store ptr %s, ptr %self.dbg.spill2, align 8, !dbg !3899
    #dbg_declare(ptr %self.dbg.spill2, !3875, !DIExpression(), !3900)
  %11 = getelementptr inbounds i8, ptr %s, i64 8, !dbg !3902
  %_24 = load ptr, ptr %11, align 8, !dbg !3902
  store ptr %_24, ptr %end.dbg.spill3, align 8, !dbg !3903
    #dbg_declare(ptr %end.dbg.spill3, !3884, !DIExpression(), !3904)
  %_25 = load ptr, ptr %s, align 8, !dbg !3905
; call core::ptr::non_null::NonNull<T>::offset_from_unsigned
  %len = call i64 @"_ZN4core3ptr8non_null16NonNull$LT$T$GT$20offset_from_unsigned17hda8e6fe9f99a2b63E"(ptr %_24, ptr %_25), !dbg !3906
  store i64 %len, ptr %len.dbg.spill, align 8, !dbg !3906
    #dbg_declare(ptr %len.dbg.spill, !3867, !DIExpression(), !3907)
  %char_len = sub i64 %pre_len, %len, !dbg !3908
  store i64 %char_len, ptr %char_len.dbg.spill, align 8, !dbg !3908
    #dbg_declare(ptr %char_len.dbg.spill, !3869, !DIExpression(), !3909)
  %_13 = getelementptr inbounds i8, ptr %self, i64 40, !dbg !3910
; call <F as core::str::pattern::MultiCharEq>::matches
  %_12 = call zeroext i1 @"_ZN53_$LT$F$u20$as$u20$core..str..pattern..MultiCharEq$GT$7matches17h39b8e1c983bb26a6E"(ptr align 1 %_13, i32 %c), !dbg !3911
  br i1 %_12, label %bb4, label %bb5, !dbg !3910

bb6:                                              ; preds = %start
  store i64 2, ptr %_0, align 8, !dbg !3912
  br label %bb8, !dbg !3913

bb5:                                              ; preds = %bb2
  %_15 = add i64 %i, %char_len, !dbg !3914
  %12 = getelementptr inbounds i8, ptr %_0, i64 8, !dbg !3915
  store i64 %i, ptr %12, align 8, !dbg !3915
  %13 = getelementptr inbounds i8, ptr %_0, i64 16, !dbg !3915
  store i64 %_15, ptr %13, align 8, !dbg !3915
  store i64 1, ptr %_0, align 8, !dbg !3915
  br label %bb7, !dbg !3916

bb4:                                              ; preds = %bb2
  %_14 = add i64 %i, %char_len, !dbg !3917
  %14 = getelementptr inbounds i8, ptr %_0, i64 8, !dbg !3918
  store i64 %i, ptr %14, align 8, !dbg !3918
  %15 = getelementptr inbounds i8, ptr %_0, i64 16, !dbg !3918
  store i64 %_14, ptr %15, align 8, !dbg !3918
  store i64 0, ptr %_0, align 8, !dbg !3918
  br label %bb7, !dbg !3919

bb7:                                              ; preds = %bb4, %bb5
  br label %bb8, !dbg !3913

bb8:                                              ; preds = %bb6, %bb7
  ret void, !dbg !3913

bb11:                                             ; No predecessors!
  unreachable, !dbg !3920
}

; <core::str::pattern::CharPredicateSearcher<F> as core::str::pattern::Searcher>::next_reject
; Function Attrs: inlinehint nonlazybind uwtable
define internal void @"_ZN99_$LT$core..str..pattern..CharPredicateSearcher$LT$F$GT$$u20$as$u20$core..str..pattern..Searcher$GT$11next_reject17h08983e9f25d562e1E"(ptr sret([24 x i8]) align 8 %_0, ptr align 8 %self) unnamed_addr #0 !dbg !3921 {
start:
  %self.dbg.spill = alloca [8 x i8], align 8
  store ptr %self, ptr %self.dbg.spill, align 8
    #dbg_declare(ptr %self.dbg.spill, !3924, !DIExpression(), !3925)
